

Microchip MPLAB XC8 Assembler V2.45 build 20230818022343 
                                                                                               Tue Jul 23 23:50:25 2024

Microchip MPLAB XC8 C Compiler v2.45 (Free license) build 20230818022343 Og1 
     1                           	processor	18F46K20
     2                           	fnconf	rparam,??,?,0
     3                           	pagewidth 120
     4                           	opt	flic
     5                           	psect	smallconst,global,reloc=2,class=SMALLCONST,delta=1,noexec
     6                           	psect	nvBANK0,global,class=BANK0,space=1,delta=1,lowdata,noexec
     7                           	psect	cinit,global,reloc=2,class=CODE,delta=1
     8                           	psect	bssCOMRAM,global,class=COMRAM,space=1,delta=1,lowdata,noexec
     9                           	psect	bssBANK0,global,class=BANK0,space=1,delta=1,lowdata,noexec
    10                           	psect	cstackBANK0,global,class=BANK0,space=1,delta=1,lowdata,noexec
    11                           	psect	cstackCOMRAM,global,class=COMRAM,space=1,delta=1,lowdata,noexec
    12                           	psect	text0,global,reloc=2,class=CODE,delta=1
    13                           	psect	text1,global,reloc=2,class=CODE,delta=1
    14                           	psect	text2,global,reloc=2,class=CODE,delta=1
    15                           	psect	text3,global,reloc=2,class=CODE,delta=1
    16                           	psect	text4,global,reloc=2,class=CODE,delta=1
    17                           	psect	text5,global,reloc=2,class=CODE,delta=1
    18                           	psect	text6,global,reloc=2,class=CODE,delta=1
    19                           	psect	text7,global,reloc=2,class=CODE,delta=1
    20                           	psect	text8,global,reloc=2,class=CODE,delta=1
    21                           	psect	text9,global,reloc=2,class=CODE,delta=1
    22                           	psect	text10,global,reloc=2,class=CODE,delta=1
    23                           	psect	text11,global,reloc=2,class=CODE,delta=1
    24                           	psect	text12,global,reloc=2,class=CODE,delta=1
    25                           	psect	text13,global,reloc=2,class=CODE,delta=1
    26                           	psect	text14,global,reloc=2,class=CODE,delta=1
    27                           	psect	text15,global,reloc=2,class=CODE,delta=1
    28                           	psect	text16,global,reloc=2,class=CODE,delta=1
    29                           	psect	text17,global,reloc=2,class=CODE,delta=1
    30                           	psect	text18,global,reloc=2,class=CODE,delta=1
    31                           	psect	text19,global,reloc=2,class=CODE,delta=1
    32                           	psect	text20,global,reloc=2,class=CODE,delta=1
    33                           	psect	text21,global,reloc=2,class=CODE,delta=1
    34                           	psect	text22,global,reloc=2,class=CODE,delta=1
    35                           	psect	text23,global,reloc=2,class=CODE,delta=1
    36                           	psect	text24,global,reloc=2,class=CODE,delta=1
    37                           	psect	text25,global,reloc=2,class=CODE,delta=1
    38                           	psect	text26,global,reloc=2,class=CODE,delta=1,inline
    39                           	psect	text27,global,reloc=2,class=CODE,delta=1,inline
    40                           	psect	text28,global,reloc=2,class=CODE,delta=1
    41                           	psect	text29,global,reloc=2,class=CODE,delta=1
    42                           	psect	text30,global,reloc=2,class=CODE,delta=1,inline
    43                           	psect	text31,global,reloc=2,class=CODE,delta=1
    44                           	psect	text32,global,reloc=2,class=CODE,delta=1,inline
    45                           	psect	text33,global,reloc=2,class=CODE,delta=1,inline
    46                           	psect	text34,global,reloc=2,class=CODE,delta=1,inline
    47                           	psect	intcode,global,reloc=2,class=CODE,delta=1
    48                           	psect	text36,global,reloc=2,class=CODE,delta=1
    49                           	psect	text37,global,reloc=2,class=CODE,delta=1,inline
    50                           	psect	text38,global,reloc=2,class=CODE,delta=1,inline
    51                           	psect	text39,global,reloc=2,class=CODE,delta=1
    52                           	psect	text40,global,reloc=2,class=CODE,delta=1
    53                           	psect	text41,global,reloc=2,class=CODE,delta=1
    54                           	psect	text42,global,reloc=2,class=CODE,delta=1
    55                           	psect	text43,global,reloc=2,class=CODE,delta=1
    56                           	psect	text44,global,reloc=2,class=CODE,delta=1
    57                           	psect	text45,global,reloc=2,class=CODE,delta=1
    58                           	psect	text46,global,reloc=2,class=CODE,delta=1
    59                           	psect	text47,global,reloc=2,class=CODE,delta=1
    60                           	psect	text48,global,reloc=2,class=CODE,delta=1
    61                           	psect	text49,global,reloc=2,class=CODE,delta=1
    62                           	psect	text50,global,reloc=2,class=CODE,delta=1
    63                           	psect	text51,global,reloc=2,class=CODE,delta=1
    64                           	psect	text52,global,reloc=2,class=CODE,delta=1
    65                           	psect	text53,global,reloc=2,class=CODE,delta=1
    66                           	psect	text54,global,reloc=2,class=CODE,delta=1
    67                           	psect	text55,global,reloc=2,class=CODE,delta=1,inline
    68                           	psect	text56,global,reloc=2,class=CODE,delta=1,inline
    69                           	psect	text57,global,reloc=2,class=CODE,delta=1,inline
    70                           	psect	text58,global,reloc=2,class=CODE,delta=1,inline
    71                           	psect	text59,global,reloc=2,class=CODE,delta=1,inline
    72                           	psect	text60,global,reloc=2,class=CODE,delta=1,inline
    73                           	psect	text61,global,reloc=2,class=CODE,delta=1,inline
    74                           	psect	text62,global,reloc=2,class=CODE,delta=1
    75                           	psect	text63,global,reloc=2,class=CODE,delta=1
    76                           	psect	text64,global,reloc=2,class=CODE,delta=1
    77                           	psect	text65,global,reloc=2,class=CODE,delta=1
    78                           	psect	text66,global,reloc=2,class=CODE,delta=1
    79                           	psect	text67,global,reloc=2,class=CODE,delta=1
    80                           	psect	text68,global,reloc=2,class=CODE,delta=1
    81                           	psect	text69,global,reloc=2,class=CODE,delta=1
    82                           	psect	text70,global,reloc=2,class=CODE,delta=1
    83                           	psect	text71,global,reloc=2,class=CODE,delta=1
    84                           	psect	text72,global,reloc=2,class=CODE,delta=1,inline
    85                           	psect	text73,global,reloc=2,class=CODE,delta=1,inline
    86                           	psect	intsave_regs,global,class=BIGRAM,space=1,delta=1,noexec
    87                           	psect	text74,global,reloc=2,class=CODE,delta=1,inline
    88                           	psect	rparam,global,class=COMRAM,space=1,delta=1,noexec
    89                           	psect	temp,global,ovrld,common,class=COMRAM,space=1,delta=1
    90                           	psect	config,global,abs,ovrld,class=CONFIG,space=4,delta=1,noexec
    91   000000                     
    92                           ; Generated 21/07/2023 GMT
    93                           ; 
    94                           ; Copyright © 2023, Microchip Technology Inc. and its subsidiaries ("Microchip")
    95                           ; All rights reserved.
    96                           ; 
    97                           ; This software is developed by Microchip Technology Inc. and its subsidiaries ("Microch
      +                          ip").
    98                           ; 
    99                           ; Redistribution and use in source and binary forms, with or without modification, are
   100                           ; permitted provided that the following conditions are met:
   101                           ; 
   102                           ;     1. Redistributions of source code must retain the above copyright notice, this lis
      +                          t of
   103                           ;        conditions and the following disclaimer.
   104                           ; 
   105                           ;     2. Redistributions in binary form must reproduce the above copyright notice, this 
      +                          list
   106                           ;        of conditions and the following disclaimer in the documentation and/or other
   107                           ;        materials provided with the distribution. Publication is not required when
   108                           ;        this file is used in an embedded application.
   109                           ; 
   110                           ;     3. Microchip's name may not be used to endorse or promote products derived from th
      +                          is
   111                           ;        software without specific prior written permission.
   112                           ; 
   113                           ; THIS SOFTWARE IS PROVIDED BY MICROCHIP "AS IS" AND ANY EXPRESS OR IMPLIED WARRANTIES,
   114                           ; INCLUDING, BUT NOT LIMITED TO, THE IMPLIED WARRANTIES OF MERCHANTABILITY AND FITNESS F
      +                          OR
   115                           ; PURPOSE ARE DISCLAIMED.  IN NO EVENT SHALL MICROCHIP BE LIABLE FOR ANY DIRECT, INDIREC
      +                          T,
   116                           ; INCIDENTAL, SPECIAL, EXEMPLARY, OR CONSEQUENTIAL DAMAGES (INCLUDING BUT NOT LIMITED TO
   117                           ; PROCUREMENT OF SUBSTITUTE GOODS OR SERVICES; LOSS OF USE, DATA OR PROFITS; OR BUSINESS
   118                           ; INTERRUPTION) HOWSOEVER CAUSED AND ON ANY THEORY OF LIABILITY, WHETHER IN CONTRACT, ST
      +                          RICT
   119                           ; LIABILITY, OR TORT (INCLUDING NEGLIGENCE OR OTHERWISE) ARISING IN ANY WAY OUT OF THE U
      +                          SE OF
   120                           ; THIS SOFTWARE, EVEN IF ADVISED OF THE POSSIBILITY OF SUCH DAMAGE.
   121                           ; 
   122                           ; 
   123                           ; Code-generator required, PIC18F46K20 Definitions
   124                           ; 
   125                           ; SFR Addresses
   126   000000                     
   127 ;; Function _EUSART_DefaultFramingErrorHandler is unused but had its address taken
   128   000000                     
   129 ;; Function _EUSART_DefaultOverrunErrorHandler is unused but had its address taken
   130   000000                     
   131 ;; Function _EUSART_DefaultErrorHandler is unused but had its address taken
   132   000000                     
   133                           	psect	smallconst
   134   001000                     __psmallconst:
   135                           	callstack 0
   136   001000  00                 	db	0
   137   001001                     _i2c_fsmStateTable:
   138                           	callstack 0
   139   001001  52                 	db	low _I2C_DO_IDLE
   140   001002  1B                 	db	high _I2C_DO_IDLE
   141   001003  F2                 	db	low _I2C_DO_SEND_ADR_READ
   142   001004  1A                 	db	high _I2C_DO_SEND_ADR_READ
   143   001005  00                 	db	low _I2C_DO_SEND_ADR_WRITE
   144   001006  1B                 	db	high _I2C_DO_SEND_ADR_WRITE
   145   001007  30                 	db	low _I2C_DO_TX
   146   001008  10                 	db	high _I2C_DO_TX
   147   001009  EE                 	db	low _I2C_DO_RX
   148   00100A  10                 	db	high _I2C_DO_RX
   149   00100B  48                 	db	low _I2C_DO_RCEN
   150   00100C  1B                 	db	high _I2C_DO_RCEN
   151   00100D  E2                 	db	low _I2C_DO_TX_EMPTY
   152   00100E  13                 	db	high _I2C_DO_TX_EMPTY
   153   00100F  9C                 	db	low _I2C_DO_SEND_RESTART_READ
   154   001010  1B                 	db	high _I2C_DO_SEND_RESTART_READ
   155   001011  94                 	db	low _I2C_DO_SEND_RESTART_WRITE
   156   001012  1B                 	db	high _I2C_DO_SEND_RESTART_WRITE
   157   001013  8C                 	db	low _I2C_DO_SEND_RESTART
   158   001014  1B                 	db	high _I2C_DO_SEND_RESTART
   159   001015  84                 	db	low _I2C_DO_SEND_STOP
   160   001016  1B                 	db	high _I2C_DO_SEND_STOP
   161   001017  7C                 	db	low _I2C_DO_RX_ACK
   162   001018  1B                 	db	high _I2C_DO_RX_ACK
   163   001019  74                 	db	low _I2C_DO_RX_NACK_STOP
   164   00101A  1B                 	db	high _I2C_DO_RX_NACK_STOP
   165   00101B  6C                 	db	low _I2C_DO_RX_NACK_RESTART
   166   00101C  1B                 	db	high _I2C_DO_RX_NACK_RESTART
   167   00101D  3E                 	db	low _I2C_DO_RESET
   168   00101E  1B                 	db	high _I2C_DO_RESET
   169   00101F  48                 	db	low _I2C_DO_ADDRESS_NACK
   170   001020  17                 	db	high _I2C_DO_ADDRESS_NACK
   171   001021                     __end_of_i2c_fsmStateTable:
   172                           	callstack 0
   173   000000                     _TXREG	set	4013
   174   000000                     _RCREG	set	4014
   175   000000                     _SPBRG	set	4015
   176   000000                     _TXSTA	set	4012
   177   000000                     _RCSTA	set	4011
   178   000000                     _BAUDCON	set	4024
   179   000000                     _PIE2bits	set	4000
   180   000000                     _IPR1bits	set	3999
   181   000000                     _TRISD	set	3989
   182   000000                     _TRISC	set	3988
   183   000000                     _TRISB	set	3987
   184   000000                     _LATC	set	3979
   185   000000                     _LATB	set	3978
   186   000000                     _EEDATA	set	4008
   187   000000                     _EEADR	set	4009
   188   000000                     _EEADRH	set	4010
   189   000000                     _EECON2	set	4007
   190   000000                     _PIR1bits	set	3998
   191   001021                     STR_2:
   192   001021  53                 	db	83	;'S'
   193   001022  74                 	db	116	;'t'
   194   001023  61                 	db	97	;'a'
   195   001024  72                 	db	114	;'r'
   196   001025  74                 	db	116	;'t'
   197   001026  0D                 	db	13
   198   001027  00                 	db	0
   199   001028                     STR_1:
   200   001028  44                 	db	68	;'D'
   201   001029  61                 	db	97	;'a'
   202   00102A  74                 	db	116	;'t'
   203   00102B  65                 	db	101	;'e'
   204   00102C  3A                 	db	58	;':'
   205   00102D  20                 	db	32
   206   00102E  00                 	db	0
   207   00102F  00                 	db	0	; dummy byte at the end
   208   000000                     
   209                           	psect	nvBANK0
   210   00008B                     __pnvBANK0:
   211                           	callstack 0
   212   00008B                     _EUSART_ErrorHandler:
   213                           	callstack 0
   214   00008B                     	ds	2
   215   00008D                     _EUSART_OverrunErrorHandler:
   216                           	callstack 0
   217   00008D                     	ds	2
   218   00008F                     _EUSART_FramingErrorHandler:
   219                           	callstack 0
   220   00008F                     	ds	2
   221   000000                     _RCSTAbits	set	4011
   222   000000                     _TXSTAbits	set	4012
   223   000000                     _SSPSTATbits	set	4039
   224   000000                     _SSPCON2bits	set	4037
   225   000000                     _SSPCON1bits	set	4038
   226   000000                     _WPUB	set	3964
   227   000000                     _ANSEL	set	3966
   228   000000                     _LATA	set	3977
   229   000000                     _LATD	set	3980
   230   000000                     _LATE	set	3981
   231   000000                     _OSCTUNE	set	3995
   232   000000                     _OSCCON	set	4051
   233   000000                     _INTCON2bits	set	4081
   234   000000                     _INTCONbits	set	4082
   235   000000                     _TABLAT	set	4085
   236   000000                     _TBLPTRL	set	4086
   237   000000                     _TBLPTRH	set	4087
   238   000000                     _TBLPTRU	set	4088
   239   000000                     _PIE1bits	set	3997
   240   000000                     _PIR2bits	set	4001
   241   000000                     _SSPCON2	set	4037
   242   000000                     _SSPCON1	set	4038
   243   000000                     _SSPSTAT	set	4039
   244   000000                     _RCONbits	set	4048
   245   000000                     _SSPBUF	set	4041
   246   000000                     _SSPADD	set	4040
   247   000000                     _IPR2bits	set	4002
   248   000000                     _EECON1bits	set	4006
   249   000000                     _TRISA	set	3986
   250   000000                     _TRISE	set	3990
   251   000000                     _ANSELH	set	3967
   252   000000                     _SPBRGH	set	4016
   253                           
   254                           ; #config settings
   255                           
   256                           	psect	cinit
   257   001984                     __pcinit:
   258                           	callstack 0
   259   001984                     start_initialization:
   260                           	callstack 0
   261   001984                     __initialization:
   262                           	callstack 0
   263                           
   264                           ; Clear objects allocated to BANK0 (24 bytes)
   265   001984  EE00  F060         	lfsr	0,__pbssBANK0
   266   001988  0E18               	movlw	24
   267   00198A                     clear_0:
   268   00198A  6AEE               	clrf	postinc0,c
   269   00198C  06E8               	decf	wreg,f,c
   270   00198E  E1FD               	bnz	clear_0
   271                           
   272                           ; Clear objects allocated to COMRAM (48 bytes)
   273   001990  EE00  F001         	lfsr	0,__pbssCOMRAM
   274   001994  0E30               	movlw	48
   275   001996                     clear_1:
   276   001996  6AEE               	clrf	postinc0,c
   277   001998  06E8               	decf	wreg,f,c
   278   00199A  E1FD               	bnz	clear_1
   279   00199C                     end_of_initialization:
   280                           	callstack 0
   281   00199C                     __end_of__initialization:
   282                           	callstack 0
   283   00199C  904C               	bcf	int$flags,0,c	;clear compiler interrupt flag (level 1)
   284   00199E  924C               	bcf	int$flags,1,c	;clear compiler interrupt flag (level 2)
   285   0019A0  0100               	movlb	0
   286   0019A2  EF2E  F00A         	goto	_main	;jump to C main() function
   287                           
   288                           	psect	bssCOMRAM
   289   000001                     __pbssCOMRAM:
   290                           	callstack 0
   291   000001                     _I2C_Status:
   292                           	callstack 0
   293   000001                     	ds	36
   294   000025                     _RealTimeClockDS1307@RealTimeClockDS1307$F1698:
   295                           	callstack 0
   296   000025                     	ds	6
   297   00002B                     _MSSP_InterruptHandler:
   298                           	callstack 0
   299   00002B                     	ds	2
   300   00002D                     _Temp_A7_Value:
   301                           	callstack 0
   302   00002D                     	ds	1
   303   00002E                     _valueu5:
   304                           	callstack 0
   305   00002E                     	ds	1
   306   00002F                     _valueu3:
   307                           	callstack 0
   308   00002F                     	ds	1
   309   000030                     _eusartRxLastError:
   310                           	callstack 0
   311   000030                     	ds	1
   312                           
   313                           	psect	bssBANK0
   314   000060                     __pbssBANK0:
   315                           	callstack 0
   316   000060                     _RealTimeClockDS1307:
   317                           	callstack 0
   318   000060                     	ds	6
   319   000066                     _DATE_PACK:
   320                           	callstack 0
   321   000066                     	ds	18
   322                           
   323                           	psect	cstackBANK0
   324   000078                     __pcstackBANK0:
   325                           	callstack 0
   326   000078                     I2C_Close@returnValue:
   327                           	callstack 0
   328   000078                     I2C_MasterOperation@read:
   329                           	callstack 0
   330   000078                     EUSART_Write@txData:
   331                           	callstack 0
   332   000078                     I2C_SetBuffer@buffer:
   333                           	callstack 0
   334   000078                     I2C_SetInterruptHandler@InterruptHandler:
   335                           	callstack 0
   336   000078                     I2C_SetCallback@cb:
   337                           	callstack 0
   338   000078                     EUSART_SetFramingErrorHandler@interruptHandler:
   339                           	callstack 0
   340   000078                     EUSART_SetOverrunErrorHandler@interruptHandler:
   341                           	callstack 0
   342   000078                     EUSART_SetErrorHandler@interruptHandler:
   343                           	callstack 0
   344                           
   345                           ; 2 bytes @ 0x0
   346   000078                     	ds	1
   347   000079                     I2C_MasterOperation@returnValue:
   348                           	callstack 0
   349   000079                     UART_LOGGINGDATA_send_string@string:
   350                           	callstack 0
   351                           
   352                           ; 2 bytes @ 0x1
   353   000079                     	ds	1
   354   00007A                     I2C_Open@address:
   355                           	callstack 0
   356   00007A                     I2C_SetBuffer@bufferSize:
   357                           	callstack 0
   358   00007A                     I2C_SetCallback@ptr:
   359                           	callstack 0
   360                           
   361                           ; 2 bytes @ 0x2
   362   00007A                     	ds	1
   363   00007B                     I2C_Open@returnValue:
   364                           	callstack 0
   365   00007B                     UART_LOGGINGDATA_send_string@string_length:
   366                           	callstack 0
   367                           
   368                           ; 1 bytes @ 0x3
   369   00007B                     	ds	1
   370   00007C                     ??_UART_LOGGINGDATA_send_string:
   371   00007C                     I2C_SetCallback@idx:
   372                           	callstack 0
   373                           
   374                           ; 1 bytes @ 0x4
   375   00007C                     	ds	1
   376   00007D                     I2C_SetDataCompleteCallback@cb:
   377                           	callstack 0
   378   00007D                     I2C_SetAddressNackCallback@cb:
   379                           	callstack 0
   380                           
   381                           ; 2 bytes @ 0x5
   382   00007D                     	ds	1
   383   00007E                     UART_LOGGINGDATA_send_string@l_string_length:
   384                           	callstack 0
   385                           
   386                           ; 2 bytes @ 0x6
   387   00007E                     	ds	1
   388   00007F                     I2C_SetDataCompleteCallback@ptr:
   389                           	callstack 0
   390   00007F                     I2C_SetAddressNackCallback@ptr:
   391                           	callstack 0
   392                           
   393                           ; 2 bytes @ 0x7
   394   00007F                     	ds	1
   395   000080                     
   396                           ; 1 bytes @ 0x8
   397   000080                     	ds	1
   398   000081                     ?_I2C_Read2ByteRegister:
   399                           	callstack 0
   400   000081                     I2C_Read1ByteRegister@reg:
   401                           	callstack 0
   402   000081                     I2C_Read2ByteRegister@reg:
   403                           	callstack 0
   404   000081                     I2C_Write1ByteRegister@reg:
   405                           	callstack 0
   406                           
   407                           ; 1 bytes @ 0x9
   408   000081                     	ds	1
   409   000082                     I2C_Read1ByteRegister@address:
   410                           	callstack 0
   411   000082                     I2C_Write1ByteRegister@data:
   412                           	callstack 0
   413                           
   414                           ; 1 bytes @ 0xA
   415   000082                     	ds	1
   416   000083                     ??_I2C_Read2ByteRegister:
   417   000083                     I2C_Read1ByteRegister@returnValue:
   418                           	callstack 0
   419   000083                     I2C_Write1ByteRegister@address:
   420                           	callstack 0
   421                           
   422                           ; 1 bytes @ 0xB
   423   000083                     	ds	1
   424   000084                     ?_RealTimeClockDS1307_Get_Date_Time:
   425                           	callstack 0
   426   000084                     EEPROM_240C02C_Write_Byte@Byte_Address:
   427                           	callstack 0
   428   000084                     EEPROM_240C02C_Read_Byte@Byte_Address:
   429                           	callstack 0
   430                           
   431                           ; 1 bytes @ 0xC
   432   000084                     	ds	1
   433   000085                     EEPROM_240C02C_Write_Byte@Data:
   434                           	callstack 0
   435   000085                     EEPROM_240C02C_Read_Byte@EEPROM_Address:
   436                           	callstack 0
   437                           
   438                           ; 1 bytes @ 0xD
   439   000085                     	ds	1
   440   000086                     I2C_Read2ByteRegister@address:
   441                           	callstack 0
   442   000086                     EEPROM_240C02C_Write_Byte@EEPROM_Address:
   443                           	callstack 0
   444   000086                     EEPROM_240C02C_Read_Byte@Rec_Value:
   445                           	callstack 0
   446                           
   447                           ; 1 bytes @ 0xE
   448   000086                     	ds	1
   449   000087                     I2C_Read2ByteRegister@returnValue:
   450                           	callstack 0
   451                           
   452                           ; 2 bytes @ 0xF
   453   000087                     	ds	2
   454   000089                     TEMSENSOR_TC74_Read_Temp@TC74_Address:
   455                           	callstack 0
   456                           
   457                           ; 1 bytes @ 0x11
   458   000089                     	ds	1
   459   00008A                     TEMSENSOR_TC74_Read_Temp@TC74_Value:
   460                           	callstack 0
   461                           
   462                           ; 1 bytes @ 0x12
   463   00008A                     	ds	1
   464   00008B                     
   465                           ; 1 bytes @ 0x13
   466                           
   467                           	psect	cstackCOMRAM
   468   000031                     __pcstackCOMRAM:
   469                           	callstack 0
   470   000031                     I2C_MasterSendTxData@data:
   471                           	callstack 0
   472   000031                     i2I2C_SetBuffer@buffer:
   473                           	callstack 0
   474   000031                     i2I2C_SetCallback@cb:
   475                           	callstack 0
   476                           
   477                           ; 2 bytes @ 0x0
   478   000031                     	ds	1
   479   000032                     
   480                           ; 1 bytes @ 0x1
   481   000032                     	ds	1
   482   000033                     i2I2C_SetBuffer@bufferSize:
   483                           	callstack 0
   484   000033                     i2I2C_SetCallback@ptr:
   485                           	callstack 0
   486                           
   487                           ; 2 bytes @ 0x2
   488   000033                     	ds	2
   489   000035                     i2I2C_SetCallback@idx:
   490                           	callstack 0
   491                           
   492                           ; 1 bytes @ 0x4
   493   000035                     	ds	1
   494   000036                     i2I2C_SetDataCompleteCallback@cb:
   495                           	callstack 0
   496                           
   497                           ; 2 bytes @ 0x5
   498   000036                     	ds	2
   499   000038                     i2I2C_SetDataCompleteCallback@ptr:
   500                           	callstack 0
   501                           
   502                           ; 2 bytes @ 0x7
   503   000038                     	ds	2
   504   00003A                     rd1RegCompleteHandler@ptr:
   505                           	callstack 0
   506   00003A                     rd2RegCompleteHandler@ptr:
   507                           	callstack 0
   508   00003A                     wr1RegCompleteHandler@ptr:
   509                           	callstack 0
   510   00003A                     wr2RegCompleteHandler@ptr:
   511                           	callstack 0
   512   00003A                     rdBlkRegCompleteHandler@ptr:
   513                           	callstack 0
   514   00003A                     I2C_CallbackReturnReset@funPtr:
   515                           	callstack 0
   516                           
   517                           ; 2 bytes @ 0x9
   518   00003A                     	ds	2
   519   00003C                     ??_rdBlkRegCompleteHandler:
   520   00003C                     
   521                           ; 1 bytes @ 0xB
   522   00003C                     	ds	1
   523   00003D                     ??_I2C_DO_TX:
   524   00003D                     ??_I2C_DO_RX:
   525   00003D                     ??_I2C_DO_TX_EMPTY:
   526   00003D                     ??_I2C_DO_ADDRESS_NACK:
   527                           
   528                           ; 1 bytes @ 0xC
   529   00003D                     	ds	2
   530   00003F                     ??_I2C_MasterFsm:
   531                           
   532                           ; 1 bytes @ 0xE
   533   00003F                     	ds	3
   534   000042                     ??_INTERRUPT_InterruptManagerHigh:
   535                           
   536                           ; 1 bytes @ 0x11
   537   000042                     	ds	10
   538                           
   539 ;;
   540 ;;Main: autosize = 0, tempsize = 0, incstack = 0, save=0
   541 ;;
   542 ;; *************** function _main *****************
   543 ;; Defined at:
   544 ;;		line 57 in file "main.c"
   545 ;; Parameters:    Size  Location     Type
   546 ;;		None
   547 ;; Auto vars:     Size  Location     Type
   548 ;;		None
   549 ;; Return value:  Size  Location     Type
   550 ;;                  1    wreg      void 
   551 ;; Registers used:
   552 ;;		wreg, fsr0l, fsr0h, fsr2l, fsr2h, status,2, status,0, tblptrl, tblptrh, tblptru, prodl, prodh, cstack
   553 ;; Tracked objects:
   554 ;;		On entry : 0/0
   555 ;;		On exit  : 0/0
   556 ;;		Unchanged: 0/0
   557 ;; Data sizes:     COMRAM   BANK0   BANK1   BANK2   BANK3   BANK4   BANK5   BANK6   BANK7   BANK8   BANK9  BANK10  BANK1
      +1  BANK12  BANK13  BANK14  BANK15
   558 ;;      Params:         0       0       0       0       0       0       0       0       0       0       0       0       
      +0       0       0       0       0
   559 ;;      Locals:         0       0       0       0       0       0       0       0       0       0       0       0       
      +0       0       0       0       0
   560 ;;      Temps:          0       0       0       0       0       0       0       0       0       0       0       0       
      +0       0       0       0       0
   561 ;;      Totals:         0       0       0       0       0       0       0       0       0       0       0       0       
      +0       0       0       0       0
   562 ;;Total ram usage:        0 bytes
   563 ;; Hardware stack levels required when called: 12
   564 ;; This function calls:
   565 ;;		_EEPROM_240C02C_Read_Byte
   566 ;;		_EEPROM_240C02C_Write_Byte
   567 ;;		_I2C_Write1ByteRegister
   568 ;;		_Print_DATE
   569 ;;		_RealTimeClockDS1307_Get_Date_Time
   570 ;;		_SYSTEM_Initialize
   571 ;;		_TEMSENSOR_TC74_Read_Temp
   572 ;;		_UART_LOGGINGDATA_send_string
   573 ;; This function is called by:
   574 ;;		Startup code after reset
   575 ;; This function uses a non-reentrant model
   576 ;;
   577                           
   578                           	psect	text0
   579   00145C                     __ptext0:
   580                           	callstack 0
   581   00145C                     _main:
   582                           	callstack 19
   583   00145C                     
   584                           ;main.c: 60:     SYSTEM_Initialize();
   585   00145C  EC4F  F00D         	call	_SYSTEM_Initialize	;wreg free
   586   001460                     
   587                           ;main.c: 67:     (INTCONbits.GIEH = 1);
   588   001460  8EF2               	bsf	242,7,c	;volatile
   589   001462                     
   590                           ;main.c: 70:     (INTCONbits.GIEL = 1);
   591   001462  8CF2               	bsf	242,6,c	;volatile
   592   001464                     
   593                           ;main.c: 76:     (INTCONbits.GIEL = 0);
   594   001464  9CF2               	bcf	242,6,c	;volatile
   595   001466                     
   596                           ;main.c: 79:     (INTCONbits.PEIE = 1);
   597   001466  8CF2               	bsf	242,6,c	;volatile
   598   001468                     
   599                           ;main.c: 84:     UART_LOGGINGDATA_send_string("Start\r", 6);
   600   001468  0E21               	movlw	low STR_2
   601   00146A  0100               	movlb	0	; () banked
   602   00146C  6F79               	movwf	UART_LOGGINGDATA_send_string@string& (0+255),b
   603   00146E  5179               	movf	UART_LOGGINGDATA_send_string@string& (0+255),w,b
   604   001470  A4D8               	btfss	status,2,c
   605   001472  0E10               	movlw	high __smallconst
   606   001474  6F7A               	movwf	(UART_LOGGINGDATA_send_string@string+1)& (0+255),b
   607   001476  0E06               	movlw	6
   608   001478  6F7B               	movwf	UART_LOGGINGDATA_send_string@string_length& (0+255),b
   609   00147A  EC72  F00B         	call	_UART_LOGGINGDATA_send_string	;wreg free
   610   00147E                     
   611                           ;main.c: 85:     EEPROM_240C02C_Write_Byte(0xA6, 0x10, 0xDD);
   612   00147E  0E10               	movlw	16
   613   001480  0100               	movlb	0	; () banked
   614   001482  6F84               	movwf	EEPROM_240C02C_Write_Byte@Byte_Address& (0+255),b
   615   001484  0EDD               	movlw	221
   616   001486  6F85               	movwf	EEPROM_240C02C_Write_Byte@Data& (0+255),b
   617   001488  0EA6               	movlw	166
   618   00148A  EC5A  F00D         	call	_EEPROM_240C02C_Write_Byte
   619   00148E                     
   620                           ;main.c: 86:     valueu5 = EEPROM_240C02C_Read_Byte(0xA6, 0x10);
   621   00148E  0E10               	movlw	16
   622   001490  0100               	movlb	0	; () banked
   623   001492  6F84               	movwf	EEPROM_240C02C_Read_Byte@Byte_Address& (0+255),b
   624   001494  0EA6               	movlw	166
   625   001496  EC1F  F00D         	call	_EEPROM_240C02C_Read_Byte
   626   00149A  6E2E               	movwf	_valueu5^0,c
   627   00149C                     l3697:
   628                           
   629                           ;main.c: 88:     {;main.c: 89:         RealTimeClockDS1307 = RealTimeClockDS1307_Get_Dat
      +                          e_Time();
   630   00149C  ECD8  F00A         	call	_RealTimeClockDS1307_Get_Date_Time	;wreg free
   631   0014A0  EE20  F060         	lfsr	2,_RealTimeClockDS1307
   632   0014A4  0E05               	movlw	5
   633   0014A6                     u1531:
   634   0014A6  CFEB FFDB          	movff	plusw0,plusw2
   635   0014AA  06E8               	decf	wreg,f,c
   636   0014AC  E2FC               	bc	u1531
   637   0014AE                     
   638                           ;main.c: 90:         Print_DATE();
   639   0014AE  EC1A  F009         	call	_Print_DATE	;wreg free
   640   0014B2                     
   641                           ;main.c: 93:         Temp_A7_Value = TEMSENSOR_TC74_Read_Temp(0x9E);
   642   0014B2  0E9E               	movlw	158
   643   0014B4  EC06  F00D         	call	_TEMSENSOR_TC74_Read_Temp
   644   0014B8  6E2D               	movwf	_Temp_A7_Value^0,c
   645   0014BA                     
   646                           ;main.c: 94:         I2C_Write1ByteRegister(0x70, 0x00, Temp_A7_Value);
   647   0014BA  0E00               	movlw	0
   648   0014BC  0100               	movlb	0	; () banked
   649   0014BE  6F81               	movwf	I2C_Write1ByteRegister@reg& (0+255),b
   650   0014C0  C02D  F082         	movff	_Temp_A7_Value,I2C_Write1ByteRegister@data
   651   0014C4  0E70               	movlw	112
   652   0014C6  EC69  F00A         	call	_I2C_Write1ByteRegister
   653   0014CA  EF4E  F00A         	goto	l3697
   654   0014CE  EF5B  F000         	goto	start
   655   0014D2                     __end_of_main:
   656                           	callstack 0
   657                           
   658 ;; *************** function _TEMSENSOR_TC74_Read_Temp *****************
   659 ;; Defined at:
   660 ;;		line 10 in file "Modules/TemSensor_TC74/TemSensor_TC74.c"
   661 ;; Parameters:    Size  Location     Type
   662 ;;  TC74_Address    1    wreg     unsigned char 
   663 ;; Auto vars:     Size  Location     Type
   664 ;;  TC74_Address    1   17[BANK0 ] unsigned char 
   665 ;;  TC74_Value      1   18[BANK0 ] unsigned char 
   666 ;; Return value:  Size  Location     Type
   667 ;;                  1    wreg      unsigned char 
   668 ;; Registers used:
   669 ;;		wreg, fsr2l, fsr2h, status,2, status,0, prodl, prodh, cstack
   670 ;; Tracked objects:
   671 ;;		On entry : 0/0
   672 ;;		On exit  : 0/0
   673 ;;		Unchanged: 0/0
   674 ;; Data sizes:     COMRAM   BANK0   BANK1   BANK2   BANK3   BANK4   BANK5   BANK6   BANK7   BANK8   BANK9  BANK10  BANK1
      +1  BANK12  BANK13  BANK14  BANK15
   675 ;;      Params:         0       0       0       0       0       0       0       0       0       0       0       0       
      +0       0       0       0       0
   676 ;;      Locals:         0       2       0       0       0       0       0       0       0       0       0       0       
      +0       0       0       0       0
   677 ;;      Temps:          0       0       0       0       0       0       0       0       0       0       0       0       
      +0       0       0       0       0
   678 ;;      Totals:         0       2       0       0       0       0       0       0       0       0       0       0       
      +0       0       0       0       0
   679 ;;Total ram usage:        2 bytes
   680 ;; Hardware stack levels used: 1
   681 ;; Hardware stack levels required when called: 11
   682 ;; This function calls:
   683 ;;		_I2C_Read2ByteRegister
   684 ;; This function is called by:
   685 ;;		_main
   686 ;; This function uses a non-reentrant model
   687 ;;
   688                           
   689                           	psect	text1
   690   001A0C                     __ptext1:
   691                           	callstack 0
   692   001A0C                     _TEMSENSOR_TC74_Read_Temp:
   693                           	callstack 19
   694                           
   695                           ;incstack = 0
   696                           ;TEMSENSOR_TC74_Read_Temp@TC74_Address stored from wreg
   697   001A0C  0100               	movlb	0	; () banked
   698   001A0E  6F89               	movwf	TEMSENSOR_TC74_Read_Temp@TC74_Address& (0+255),b
   699   001A10                     
   700                           ;Modules/TemSensor_TC74/TemSensor_TC74.c: 12:     TC74_Value = I2C_Read2ByteRegister(TC7
      +                          4_Address, 0x00);
   701   001A10  0E00               	movlw	0
   702   001A12  0100               	movlb	0	; () banked
   703   001A14  6F81               	movwf	I2C_Read2ByteRegister@reg& (0+255),b
   704   001A16  5189               	movf	TEMSENSOR_TC74_Read_Temp@TC74_Address& (0+255),w,b
   705   001A18  EC6A  F009         	call	_I2C_Read2ByteRegister
   706   001A1C  0100               	movlb	0	; () banked
   707   001A1E  5181               	movf	?_I2C_Read2ByteRegister& (0+255),w,b
   708   001A20  6F8A               	movwf	TEMSENSOR_TC74_Read_Temp@TC74_Value& (0+255),b
   709   001A22                     
   710                           ; BSR set to: 0
   711                           ;Modules/TemSensor_TC74/TemSensor_TC74.c: 14:     return TC74_Value;
   712   001A22  518A               	movf	TEMSENSOR_TC74_Read_Temp@TC74_Value& (0+255),w,b
   713   001A24                     
   714                           ; BSR set to: 0
   715   001A24  0012               	return		;funcret
   716   001A26                     __end_of_TEMSENSOR_TC74_Read_Temp:
   717                           	callstack 0
   718                           
   719 ;; *************** function _I2C_Read2ByteRegister *****************
   720 ;; Defined at:
   721 ;;		line 77 in file "mcc_generated_files/examples/i2c_master_example.c"
   722 ;; Parameters:    Size  Location     Type
   723 ;;  address         1    wreg     unsigned char 
   724 ;;  reg             1    9[BANK0 ] unsigned char 
   725 ;; Auto vars:     Size  Location     Type
   726 ;;  address         1   14[BANK0 ] unsigned char 
   727 ;;  returnValue     2   15[BANK0 ] unsigned short 
   728 ;; Return value:  Size  Location     Type
   729 ;;                  2    9[BANK0 ] unsigned short 
   730 ;; Registers used:
   731 ;;		wreg, fsr2l, fsr2h, status,2, status,0, prodl, prodh, cstack
   732 ;; Tracked objects:
   733 ;;		On entry : 0/0
   734 ;;		On exit  : 0/0
   735 ;;		Unchanged: 0/0
   736 ;; Data sizes:     COMRAM   BANK0   BANK1   BANK2   BANK3   BANK4   BANK5   BANK6   BANK7   BANK8   BANK9  BANK10  BANK1
      +1  BANK12  BANK13  BANK14  BANK15
   737 ;;      Params:         0       2       0       0       0       0       0       0       0       0       0       0       
      +0       0       0       0       0
   738 ;;      Locals:         0       3       0       0       0       0       0       0       0       0       0       0       
      +0       0       0       0       0
   739 ;;      Temps:          0       3       0       0       0       0       0       0       0       0       0       0       
      +0       0       0       0       0
   740 ;;      Totals:         0       8       0       0       0       0       0       0       0       0       0       0       
      +0       0       0       0       0
   741 ;;Total ram usage:        8 bytes
   742 ;; Hardware stack levels used: 1
   743 ;; Hardware stack levels required when called: 10
   744 ;; This function calls:
   745 ;;		_I2C_Close
   746 ;;		_I2C_MasterWrite
   747 ;;		_I2C_Open
   748 ;;		_I2C_SetAddressNackCallback
   749 ;;		_I2C_SetBuffer
   750 ;;		_I2C_SetDataCompleteCallback
   751 ;; This function is called by:
   752 ;;		_TEMSENSOR_TC74_Read_Temp
   753 ;; This function uses a non-reentrant model
   754 ;;
   755                           
   756                           	psect	text2
   757   0012D4                     __ptext2:
   758                           	callstack 0
   759   0012D4                     _I2C_Read2ByteRegister:
   760                           	callstack 19
   761                           
   762                           ; BSR set to: 0
   763                           ;incstack = 0
   764                           ;I2C_Read2ByteRegister@address stored from wreg
   765   0012D4  0100               	movlb	0	; () banked
   766   0012D6  6F86               	movwf	I2C_Read2ByteRegister@address& (0+255),b
   767   0012D8                     
   768                           ;mcc_generated_files/examples/i2c_master_example.c: 77: uint16_t I2C_Read2ByteRegister(i
      +                          2c_address_t address, uint8_t reg);mcc_generated_files/examples/i2c_master_example.c: 78
      +                          : {;mcc_generated_files/examples/i2c_master_example.c: 79:     uint16_t returnValue =0x0
      +                          0;
   769   0012D8  0E00               	movlw	0
   770   0012DA  0100               	movlb	0	; () banked
   771   0012DC  6F88               	movwf	(I2C_Read2ByteRegister@returnValue+1)& (0+255),b
   772   0012DE  0E00               	movlw	0
   773   0012E0  6F87               	movwf	I2C_Read2ByteRegister@returnValue& (0+255),b
   774   0012E2                     l3435:
   775   0012E2  0100               	movlb	0	; () banked
   776   0012E4  5186               	movf	I2C_Read2ByteRegister@address& (0+255),w,b
   777   0012E6  ECC9  F008         	call	_I2C_Open
   778   0012EA  0900               	iorlw	0
   779   0012EC  B4D8               	btfsc	status,2,c
   780   0012EE  EF7B  F009         	goto	u1281
   781   0012F2  EF7D  F009         	goto	u1280
   782   0012F6                     u1281:
   783   0012F6  EF71  F009         	goto	l3435
   784   0012FA                     u1280:
   785   0012FA                     
   786                           ;mcc_generated_files/examples/i2c_master_example.c: 82:     I2C_SetDataCompleteCallback(
      +                          rd2RegCompleteHandler,&returnValue);
   787   0012FA  0E00               	movlw	low _rd2RegCompleteHandler
   788   0012FC  0100               	movlb	0	; () banked
   789   0012FE  6F7D               	movwf	I2C_SetDataCompleteCallback@cb& (0+255),b
   790   001300  0E19               	movlw	high _rd2RegCompleteHandler
   791   001302  6F7E               	movwf	(I2C_SetDataCompleteCallback@cb+1)& (0+255),b
   792   001304  0E87               	movlw	low I2C_Read2ByteRegister@returnValue
   793   001306  6F7F               	movwf	I2C_SetDataCompleteCallback@ptr& (0+255),b
   794   001308  6B80               	clrf	(I2C_SetDataCompleteCallback@ptr+1)& (0+255),b
   795   00130A  EC2B  F00D         	call	_I2C_SetDataCompleteCallback	;wreg free
   796   00130E                     
   797                           ;mcc_generated_files/examples/i2c_master_example.c: 83:     I2C_SetBuffer(&reg,1);
   798   00130E  0E81               	movlw	low I2C_Read2ByteRegister@reg
   799   001310  0100               	movlb	0	; () banked
   800   001312  6F78               	movwf	I2C_SetBuffer@buffer& (0+255),b
   801   001314  6B79               	clrf	(I2C_SetBuffer@buffer+1)& (0+255),b
   802   001316  0E00               	movlw	0
   803   001318  6F7B               	movwf	(I2C_SetBuffer@bufferSize+1)& (0+255),b
   804   00131A  0E01               	movlw	1
   805   00131C  6F7A               	movwf	I2C_SetBuffer@bufferSize& (0+255),b
   806   00131E  ECD3  F00C         	call	_I2C_SetBuffer	;wreg free
   807   001322                     
   808                           ;mcc_generated_files/examples/i2c_master_example.c: 84:     I2C_SetAddressNackCallback((
      +                          (void*)0),((void*)0));
   809   001322  0E00               	movlw	0
   810   001324  0100               	movlb	0	; () banked
   811   001326  6F7D               	movwf	I2C_SetAddressNackCallback@cb& (0+255),b
   812   001328  0E00               	movlw	0
   813   00132A  6F7E               	movwf	(I2C_SetAddressNackCallback@cb+1)& (0+255),b
   814   00132C  0E00               	movlw	0
   815   00132E  6F7F               	movwf	I2C_SetAddressNackCallback@ptr& (0+255),b
   816   001330  0E00               	movlw	0
   817   001332  6F80               	movwf	(I2C_SetAddressNackCallback@ptr+1)& (0+255),b
   818   001334  EC37  F00D         	call	_I2C_SetAddressNackCallback	;wreg free
   819   001338                     
   820                           ;mcc_generated_files/examples/i2c_master_example.c: 85:     I2C_MasterWrite();
   821   001338  ECB2  F00D         	call	_I2C_MasterWrite	;wreg free
   822   00133C                     l3445:
   823   00133C  EC53  F00C         	call	_I2C_Close	;wreg free
   824   001340  06E8               	decf	wreg,f,c
   825   001342  B4D8               	btfsc	status,2,c
   826   001344  EFA6  F009         	goto	u1291
   827   001348  EFA8  F009         	goto	u1290
   828   00134C                     u1291:
   829   00134C  EF9E  F009         	goto	l3445
   830   001350                     u1290:
   831   001350                     
   832                           ;mcc_generated_files/examples/i2c_master_example.c: 88:     return (returnValue << 8 | r
      +                          eturnValue >> 8);
   833   001350  C088  F083         	movff	I2C_Read2ByteRegister@returnValue+1,??_I2C_Read2ByteRegister
   834   001354  0100               	movlb	0	; () banked
   835   001356  5187               	movf	I2C_Read2ByteRegister@returnValue& (0+255),w,b
   836   001358  6F84               	movwf	(??_I2C_Read2ByteRegister+1)& (0+255),b
   837   00135A  5183               	movf	??_I2C_Read2ByteRegister& (0+255),w,b
   838   00135C  6F81               	movwf	?_I2C_Read2ByteRegister& (0+255),b
   839   00135E  C084  F082         	movff	??_I2C_Read2ByteRegister+1,?_I2C_Read2ByteRegister+1
   840   001362                     
   841                           ; BSR set to: 0
   842   001362  0012               	return		;funcret
   843   001364                     __end_of_I2C_Read2ByteRegister:
   844                           	callstack 0
   845                           
   846 ;; *************** function _SYSTEM_Initialize *****************
   847 ;; Defined at:
   848 ;;		line 50 in file "mcc_generated_files/mcc.c"
   849 ;; Parameters:    Size  Location     Type
   850 ;;		None
   851 ;; Auto vars:     Size  Location     Type
   852 ;;		None
   853 ;; Return value:  Size  Location     Type
   854 ;;                  1    wreg      void 
   855 ;; Registers used:
   856 ;;		wreg, status,2, status,0, cstack
   857 ;; Tracked objects:
   858 ;;		On entry : 0/0
   859 ;;		On exit  : 0/0
   860 ;;		Unchanged: 0/0
   861 ;; Data sizes:     COMRAM   BANK0   BANK1   BANK2   BANK3   BANK4   BANK5   BANK6   BANK7   BANK8   BANK9  BANK10  BANK1
      +1  BANK12  BANK13  BANK14  BANK15
   862 ;;      Params:         0       0       0       0       0       0       0       0       0       0       0       0       
      +0       0       0       0       0
   863 ;;      Locals:         0       0       0       0       0       0       0       0       0       0       0       0       
      +0       0       0       0       0
   864 ;;      Temps:          0       0       0       0       0       0       0       0       0       0       0       0       
      +0       0       0       0       0
   865 ;;      Totals:         0       0       0       0       0       0       0       0       0       0       0       0       
      +0       0       0       0       0
   866 ;;Total ram usage:        0 bytes
   867 ;; Hardware stack levels used: 1
   868 ;; Hardware stack levels required when called: 9
   869 ;; This function calls:
   870 ;;		_EUSART_Initialize
   871 ;;		_I2C_Initialize
   872 ;;		_INTERRUPT_Initialize
   873 ;;		_OSCILLATOR_Initialize
   874 ;;		_PIN_MANAGER_Initialize
   875 ;; This function is called by:
   876 ;;		_main
   877 ;; This function uses a non-reentrant model
   878 ;;
   879                           
   880                           	psect	text3
   881   001A9E                     __ptext3:
   882                           	callstack 0
   883   001A9E                     _SYSTEM_Initialize:
   884                           	callstack 21
   885   001A9E                     
   886                           ;mcc_generated_files/mcc.c: 53:     INTERRUPT_Initialize();
   887   001A9E  ECAE  F00D         	call	_INTERRUPT_Initialize	;wreg free
   888   001AA2                     
   889                           ;mcc_generated_files/mcc.c: 54:     I2C_Initialize();
   890   001AA2  EC65  F00D         	call	_I2C_Initialize	;wreg free
   891   001AA6                     
   892                           ;mcc_generated_files/mcc.c: 55:     PIN_MANAGER_Initialize();
   893   001AA6  EC3B  F00C         	call	_PIN_MANAGER_Initialize	;wreg free
   894   001AAA                     
   895                           ;mcc_generated_files/mcc.c: 56:     OSCILLATOR_Initialize();
   896   001AAA  EC86  F00D         	call	_OSCILLATOR_Initialize	;wreg free
   897   001AAE                     
   898                           ;mcc_generated_files/mcc.c: 57:     EUSART_Initialize();
   899   001AAE  ECD6  F00B         	call	_EUSART_Initialize	;wreg free
   900   001AB2  0012               	return		;funcret
   901   001AB4                     __end_of_SYSTEM_Initialize:
   902                           	callstack 0
   903                           
   904 ;; *************** function _PIN_MANAGER_Initialize *****************
   905 ;; Defined at:
   906 ;;		line 55 in file "mcc_generated_files/pin_manager.c"
   907 ;; Parameters:    Size  Location     Type
   908 ;;		None
   909 ;; Auto vars:     Size  Location     Type
   910 ;;		None
   911 ;; Return value:  Size  Location     Type
   912 ;;                  1    wreg      void 
   913 ;; Registers used:
   914 ;;		wreg, status,2
   915 ;; Tracked objects:
   916 ;;		On entry : 0/0
   917 ;;		On exit  : 0/0
   918 ;;		Unchanged: 0/0
   919 ;; Data sizes:     COMRAM   BANK0   BANK1   BANK2   BANK3   BANK4   BANK5   BANK6   BANK7   BANK8   BANK9  BANK10  BANK1
      +1  BANK12  BANK13  BANK14  BANK15
   920 ;;      Params:         0       0       0       0       0       0       0       0       0       0       0       0       
      +0       0       0       0       0
   921 ;;      Locals:         0       0       0       0       0       0       0       0       0       0       0       0       
      +0       0       0       0       0
   922 ;;      Temps:          0       0       0       0       0       0       0       0       0       0       0       0       
      +0       0       0       0       0
   923 ;;      Totals:         0       0       0       0       0       0       0       0       0       0       0       0       
      +0       0       0       0       0
   924 ;;Total ram usage:        0 bytes
   925 ;; Hardware stack levels used: 1
   926 ;; Hardware stack levels required when called: 7
   927 ;; This function calls:
   928 ;;		Nothing
   929 ;; This function is called by:
   930 ;;		_SYSTEM_Initialize
   931 ;; This function uses a non-reentrant model
   932 ;;
   933                           
   934                           	psect	text4
   935   001876                     __ptext4:
   936                           	callstack 0
   937   001876                     _PIN_MANAGER_Initialize:
   938                           	callstack 22
   939   001876                     
   940                           ;mcc_generated_files/pin_manager.c: 60:     LATE = 0x00;
   941   001876  0E00               	movlw	0
   942   001878  6E8D               	movwf	141,c	;volatile
   943                           
   944                           ;mcc_generated_files/pin_manager.c: 61:     LATD = 0x00;
   945   00187A  0E00               	movlw	0
   946   00187C  6E8C               	movwf	140,c	;volatile
   947                           
   948                           ;mcc_generated_files/pin_manager.c: 62:     LATA = 0x00;
   949   00187E  0E00               	movlw	0
   950   001880  6E89               	movwf	137,c	;volatile
   951                           
   952                           ;mcc_generated_files/pin_manager.c: 63:     LATB = 0x00;
   953   001882  0E00               	movlw	0
   954   001884  6E8A               	movwf	138,c	;volatile
   955                           
   956                           ;mcc_generated_files/pin_manager.c: 64:     LATC = 0x00;
   957   001886  0E00               	movlw	0
   958   001888  6E8B               	movwf	139,c	;volatile
   959                           
   960                           ;mcc_generated_files/pin_manager.c: 69:     TRISE = 0x07;
   961   00188A  0E07               	movlw	7
   962   00188C  6E96               	movwf	150,c	;volatile
   963   00188E                     
   964                           ;mcc_generated_files/pin_manager.c: 70:     TRISA = 0xFF;
   965   00188E  6892               	setf	146,c	;volatile
   966   001890                     
   967                           ;mcc_generated_files/pin_manager.c: 71:     TRISB = 0xFF;
   968   001890  6893               	setf	147,c	;volatile
   969                           
   970                           ;mcc_generated_files/pin_manager.c: 72:     TRISC = 0xBF;
   971   001892  0EBF               	movlw	191
   972   001894  6E94               	movwf	148,c	;volatile
   973   001896                     
   974                           ;mcc_generated_files/pin_manager.c: 73:     TRISD = 0xFF;
   975   001896  6895               	setf	149,c	;volatile
   976   001898                     
   977                           ;mcc_generated_files/pin_manager.c: 78:     ANSEL = 0xFF;
   978   001898  687E               	setf	126,c	;volatile
   979                           
   980                           ;mcc_generated_files/pin_manager.c: 79:     ANSELH = 0x1F;
   981   00189A  0E1F               	movlw	31
   982   00189C  6E7F               	movwf	127,c	;volatile
   983                           
   984                           ;mcc_generated_files/pin_manager.c: 84:     WPUB = 0x00;
   985   00189E  0E00               	movlw	0
   986   0018A0  6E7C               	movwf	124,c	;volatile
   987   0018A2                     
   988                           ;mcc_generated_files/pin_manager.c: 85:     INTCON2bits.nRBPU = 1;
   989   0018A2  8EF1               	bsf	241,7,c	;volatile
   990   0018A4  0012               	return		;funcret
   991   0018A6                     __end_of_PIN_MANAGER_Initialize:
   992                           	callstack 0
   993                           
   994 ;; *************** function _OSCILLATOR_Initialize *****************
   995 ;; Defined at:
   996 ;;		line 60 in file "mcc_generated_files/mcc.c"
   997 ;; Parameters:    Size  Location     Type
   998 ;;		None
   999 ;; Auto vars:     Size  Location     Type
  1000 ;;		None
  1001 ;; Return value:  Size  Location     Type
  1002 ;;                  1    wreg      void 
  1003 ;; Registers used:
  1004 ;;		wreg, status,2
  1005 ;; Tracked objects:
  1006 ;;		On entry : 0/0
  1007 ;;		On exit  : 0/0
  1008 ;;		Unchanged: 0/0
  1009 ;; Data sizes:     COMRAM   BANK0   BANK1   BANK2   BANK3   BANK4   BANK5   BANK6   BANK7   BANK8   BANK9  BANK10  BANK1
      +1  BANK12  BANK13  BANK14  BANK15
  1010 ;;      Params:         0       0       0       0       0       0       0       0       0       0       0       0       
      +0       0       0       0       0
  1011 ;;      Locals:         0       0       0       0       0       0       0       0       0       0       0       0       
      +0       0       0       0       0
  1012 ;;      Temps:          0       0       0       0       0       0       0       0       0       0       0       0       
      +0       0       0       0       0
  1013 ;;      Totals:         0       0       0       0       0       0       0       0       0       0       0       0       
      +0       0       0       0       0
  1014 ;;Total ram usage:        0 bytes
  1015 ;; Hardware stack levels used: 1
  1016 ;; Hardware stack levels required when called: 7
  1017 ;; This function calls:
  1018 ;;		Nothing
  1019 ;; This function is called by:
  1020 ;;		_SYSTEM_Initialize
  1021 ;; This function uses a non-reentrant model
  1022 ;;
  1023                           
  1024                           	psect	text5
  1025   001B0C                     __ptext5:
  1026                           	callstack 0
  1027   001B0C                     _OSCILLATOR_Initialize:
  1028                           	callstack 22
  1029   001B0C                     
  1030                           ;mcc_generated_files/mcc.c: 63:     OSCCON = 0x30;
  1031   001B0C  0E30               	movlw	48
  1032   001B0E  6ED3               	movwf	211,c	;volatile
  1033                           
  1034                           ;mcc_generated_files/mcc.c: 65:     OSCTUNE = 0x00;
  1035   001B10  0E00               	movlw	0
  1036   001B12  6E9B               	movwf	155,c	;volatile
  1037   001B14  0012               	return		;funcret
  1038   001B16                     __end_of_OSCILLATOR_Initialize:
  1039                           	callstack 0
  1040                           
  1041 ;; *************** function _INTERRUPT_Initialize *****************
  1042 ;; Defined at:
  1043 ;;		line 52 in file "mcc_generated_files/interrupt_manager.c"
  1044 ;; Parameters:    Size  Location     Type
  1045 ;;		None
  1046 ;; Auto vars:     Size  Location     Type
  1047 ;;		None
  1048 ;; Return value:  Size  Location     Type
  1049 ;;                  1    wreg      void 
  1050 ;; Registers used:
  1051 ;;		None
  1052 ;; Tracked objects:
  1053 ;;		On entry : 0/0
  1054 ;;		On exit  : 0/0
  1055 ;;		Unchanged: 0/0
  1056 ;; Data sizes:     COMRAM   BANK0   BANK1   BANK2   BANK3   BANK4   BANK5   BANK6   BANK7   BANK8   BANK9  BANK10  BANK1
      +1  BANK12  BANK13  BANK14  BANK15
  1057 ;;      Params:         0       0       0       0       0       0       0       0       0       0       0       0       
      +0       0       0       0       0
  1058 ;;      Locals:         0       0       0       0       0       0       0       0       0       0       0       0       
      +0       0       0       0       0
  1059 ;;      Temps:          0       0       0       0       0       0       0       0       0       0       0       0       
      +0       0       0       0       0
  1060 ;;      Totals:         0       0       0       0       0       0       0       0       0       0       0       0       
      +0       0       0       0       0
  1061 ;;Total ram usage:        0 bytes
  1062 ;; Hardware stack levels used: 1
  1063 ;; Hardware stack levels required when called: 7
  1064 ;; This function calls:
  1065 ;;		Nothing
  1066 ;; This function is called by:
  1067 ;;		_SYSTEM_Initialize
  1068 ;; This function uses a non-reentrant model
  1069 ;;
  1070                           
  1071                           	psect	text6
  1072   001B5C                     __ptext6:
  1073                           	callstack 0
  1074   001B5C                     _INTERRUPT_Initialize:
  1075                           	callstack 22
  1076   001B5C                     
  1077                           ;mcc_generated_files/interrupt_manager.c: 55:     RCONbits.IPEN = 1;
  1078   001B5C  8ED0               	bsf	208,7,c	;volatile
  1079                           
  1080                           ;mcc_generated_files/interrupt_manager.c: 60:     IPR2bits.BCLIP = 1;
  1081   001B5E  86A2               	bsf	162,3,c	;volatile
  1082                           
  1083                           ;mcc_generated_files/interrupt_manager.c: 63:     IPR1bits.SSPIP = 1;
  1084   001B60  869F               	bsf	159,3,c	;volatile
  1085   001B62  0012               	return		;funcret
  1086   001B64                     __end_of_INTERRUPT_Initialize:
  1087                           	callstack 0
  1088                           
  1089 ;; *************** function _I2C_Initialize *****************
  1090 ;; Defined at:
  1091 ;;		line 167 in file "mcc_generated_files/i2c_master.c"
  1092 ;; Parameters:    Size  Location     Type
  1093 ;;		None
  1094 ;; Auto vars:     Size  Location     Type
  1095 ;;		None
  1096 ;; Return value:  Size  Location     Type
  1097 ;;                  1    wreg      void 
  1098 ;; Registers used:
  1099 ;;		wreg, status,2
  1100 ;; Tracked objects:
  1101 ;;		On entry : 0/0
  1102 ;;		On exit  : 0/0
  1103 ;;		Unchanged: 0/0
  1104 ;; Data sizes:     COMRAM   BANK0   BANK1   BANK2   BANK3   BANK4   BANK5   BANK6   BANK7   BANK8   BANK9  BANK10  BANK1
      +1  BANK12  BANK13  BANK14  BANK15
  1105 ;;      Params:         0       0       0       0       0       0       0       0       0       0       0       0       
      +0       0       0       0       0
  1106 ;;      Locals:         0       0       0       0       0       0       0       0       0       0       0       0       
      +0       0       0       0       0
  1107 ;;      Temps:          0       0       0       0       0       0       0       0       0       0       0       0       
      +0       0       0       0       0
  1108 ;;      Totals:         0       0       0       0       0       0       0       0       0       0       0       0       
      +0       0       0       0       0
  1109 ;;Total ram usage:        0 bytes
  1110 ;; Hardware stack levels used: 1
  1111 ;; Hardware stack levels required when called: 7
  1112 ;; This function calls:
  1113 ;;		Nothing
  1114 ;; This function is called by:
  1115 ;;		_SYSTEM_Initialize
  1116 ;; This function uses a non-reentrant model
  1117 ;;
  1118                           
  1119                           	psect	text7
  1120   001ACA                     __ptext7:
  1121                           	callstack 0
  1122   001ACA                     _I2C_Initialize:
  1123                           	callstack 22
  1124   001ACA                     
  1125                           ;mcc_generated_files/i2c_master.c: 169:     SSPSTAT = 0x00;
  1126   001ACA  0E00               	movlw	0
  1127   001ACC  6EC7               	movwf	199,c	;volatile
  1128                           
  1129                           ;mcc_generated_files/i2c_master.c: 170:     SSPCON1 = 0x08;
  1130   001ACE  0E08               	movlw	8
  1131   001AD0  6EC6               	movwf	198,c	;volatile
  1132                           
  1133                           ;mcc_generated_files/i2c_master.c: 171:     SSPCON2 = 0x00;
  1134   001AD2  0E00               	movlw	0
  1135   001AD4  6EC5               	movwf	197,c	;volatile
  1136                           
  1137                           ;mcc_generated_files/i2c_master.c: 172:     SSPADD = 0x03;
  1138   001AD6  0E03               	movlw	3
  1139   001AD8  6EC8               	movwf	200,c	;volatile
  1140   001ADA                     
  1141                           ;mcc_generated_files/i2c_master.c: 173:     SSPCON1bits.SSPEN = 0;
  1142   001ADA  9AC6               	bcf	198,5,c	;volatile
  1143   001ADC  0012               	return		;funcret
  1144   001ADE                     __end_of_I2C_Initialize:
  1145                           	callstack 0
  1146                           
  1147 ;; *************** function _EUSART_Initialize *****************
  1148 ;; Defined at:
  1149 ;;		line 66 in file "mcc_generated_files/eusart.c"
  1150 ;; Parameters:    Size  Location     Type
  1151 ;;		None
  1152 ;; Auto vars:     Size  Location     Type
  1153 ;;		None
  1154 ;; Return value:  Size  Location     Type
  1155 ;;                  1    wreg      void 
  1156 ;; Registers used:
  1157 ;;		wreg, status,2, status,0, cstack
  1158 ;; Tracked objects:
  1159 ;;		On entry : 0/0
  1160 ;;		On exit  : 0/0
  1161 ;;		Unchanged: 0/0
  1162 ;; Data sizes:     COMRAM   BANK0   BANK1   BANK2   BANK3   BANK4   BANK5   BANK6   BANK7   BANK8   BANK9  BANK10  BANK1
      +1  BANK12  BANK13  BANK14  BANK15
  1163 ;;      Params:         0       0       0       0       0       0       0       0       0       0       0       0       
      +0       0       0       0       0
  1164 ;;      Locals:         0       0       0       0       0       0       0       0       0       0       0       0       
      +0       0       0       0       0
  1165 ;;      Temps:          0       0       0       0       0       0       0       0       0       0       0       0       
      +0       0       0       0       0
  1166 ;;      Totals:         0       0       0       0       0       0       0       0       0       0       0       0       
      +0       0       0       0       0
  1167 ;;Total ram usage:        0 bytes
  1168 ;; Hardware stack levels used: 1
  1169 ;; Hardware stack levels required when called: 8
  1170 ;; This function calls:
  1171 ;;		_EUSART_SetErrorHandler
  1172 ;;		_EUSART_SetFramingErrorHandler
  1173 ;;		_EUSART_SetOverrunErrorHandler
  1174 ;; This function is called by:
  1175 ;;		_SYSTEM_Initialize
  1176 ;; This function uses a non-reentrant model
  1177 ;;
  1178                           
  1179                           	psect	text8
  1180   0017AC                     __ptext8:
  1181                           	callstack 0
  1182   0017AC                     _EUSART_Initialize:
  1183                           	callstack 21
  1184   0017AC                     
  1185                           ;mcc_generated_files/eusart.c: 71:     BAUDCON = 0x08;
  1186   0017AC  0E08               	movlw	8
  1187   0017AE  6EB8               	movwf	184,c	;volatile
  1188                           
  1189                           ;mcc_generated_files/eusart.c: 74:     RCSTA = 0x90;
  1190   0017B0  0E90               	movlw	144
  1191   0017B2  6EAB               	movwf	171,c	;volatile
  1192                           
  1193                           ;mcc_generated_files/eusart.c: 77:     TXSTA = 0x24;
  1194   0017B4  0E24               	movlw	36
  1195   0017B6  6EAC               	movwf	172,c	;volatile
  1196                           
  1197                           ;mcc_generated_files/eusart.c: 80:     SPBRG = 0x19;
  1198   0017B8  0E19               	movlw	25
  1199   0017BA  6EAF               	movwf	175,c	;volatile
  1200                           
  1201                           ;mcc_generated_files/eusart.c: 83:     SPBRGH = 0x00;
  1202   0017BC  0E00               	movlw	0
  1203   0017BE  6EB0               	movwf	176,c	;volatile
  1204   0017C0                     
  1205                           ;mcc_generated_files/eusart.c: 86:     EUSART_SetFramingErrorHandler(EUSART_DefaultFrami
      +                          ngErrorHandler);
  1206   0017C0  0E00               	movlw	0
  1207   0017C2  0100               	movlb	0	; () banked
  1208   0017C4  6F78               	movwf	EUSART_SetFramingErrorHandler@interruptHandler& (0+255),b
  1209   0017C6  0E00               	movlw	0
  1210   0017C8  6F79               	movwf	(EUSART_SetFramingErrorHandler@interruptHandler+1)& (0+255),b
  1211   0017CA  EC90  F00D         	call	_EUSART_SetFramingErrorHandler	;wreg free
  1212   0017CE                     
  1213                           ;mcc_generated_files/eusart.c: 87:     EUSART_SetOverrunErrorHandler(EUSART_DefaultOverr
      +                          unErrorHandler);
  1214   0017CE  0E00               	movlw	0
  1215   0017D0  0100               	movlb	0	; () banked
  1216   0017D2  6F78               	movwf	EUSART_SetOverrunErrorHandler@interruptHandler& (0+255),b
  1217   0017D4  0E00               	movlw	0
  1218   0017D6  6F79               	movwf	(EUSART_SetOverrunErrorHandler@interruptHandler+1)& (0+255),b
  1219   0017D8  EC8B  F00D         	call	_EUSART_SetOverrunErrorHandler	;wreg free
  1220   0017DC                     
  1221                           ;mcc_generated_files/eusart.c: 88:     EUSART_SetErrorHandler(EUSART_DefaultErrorHandler
      +                          );
  1222   0017DC  0E00               	movlw	0
  1223   0017DE  0100               	movlb	0	; () banked
  1224   0017E0  6F78               	movwf	EUSART_SetErrorHandler@interruptHandler& (0+255),b
  1225   0017E2  0E00               	movlw	0
  1226   0017E4  6F79               	movwf	(EUSART_SetErrorHandler@interruptHandler+1)& (0+255),b
  1227   0017E6  EC95  F00D         	call	_EUSART_SetErrorHandler	;wreg free
  1228   0017EA                     
  1229                           ;mcc_generated_files/eusart.c: 90:     eusartRxLastError.status = 0;
  1230   0017EA  0E00               	movlw	0
  1231   0017EC  6E30               	movwf	_eusartRxLastError^0,c	;volatile
  1232   0017EE  0012               	return		;funcret
  1233   0017F0                     __end_of_EUSART_Initialize:
  1234                           	callstack 0
  1235                           
  1236 ;; *************** function _EUSART_SetOverrunErrorHandler *****************
  1237 ;; Defined at:
  1238 ;;		line 161 in file "mcc_generated_files/eusart.c"
  1239 ;; Parameters:    Size  Location     Type
  1240 ;;  interruptHan    2    0[BANK0 ] PTR FTN()void 
  1241 ;;		 -> EUSART_DefaultOverrunErrorHandler(1), 
  1242 ;; Auto vars:     Size  Location     Type
  1243 ;;		None
  1244 ;; Return value:  Size  Location     Type
  1245 ;;                  1    wreg      void 
  1246 ;; Registers used:
  1247 ;;		wreg, status,2, status,0
  1248 ;; Tracked objects:
  1249 ;;		On entry : 0/0
  1250 ;;		On exit  : 0/0
  1251 ;;		Unchanged: 0/0
  1252 ;; Data sizes:     COMRAM   BANK0   BANK1   BANK2   BANK3   BANK4   BANK5   BANK6   BANK7   BANK8   BANK9  BANK10  BANK1
      +1  BANK12  BANK13  BANK14  BANK15
  1253 ;;      Params:         0       2       0       0       0       0       0       0       0       0       0       0       
      +0       0       0       0       0
  1254 ;;      Locals:         0       0       0       0       0       0       0       0       0       0       0       0       
      +0       0       0       0       0
  1255 ;;      Temps:          0       0       0       0       0       0       0       0       0       0       0       0       
      +0       0       0       0       0
  1256 ;;      Totals:         0       2       0       0       0       0       0       0       0       0       0       0       
      +0       0       0       0       0
  1257 ;;Total ram usage:        2 bytes
  1258 ;; Hardware stack levels used: 1
  1259 ;; Hardware stack levels required when called: 7
  1260 ;; This function calls:
  1261 ;;		Nothing
  1262 ;; This function is called by:
  1263 ;;		_EUSART_Initialize
  1264 ;; This function uses a non-reentrant model
  1265 ;;
  1266                           
  1267                           	psect	text9
  1268   001B16                     __ptext9:
  1269                           	callstack 0
  1270   001B16                     _EUSART_SetOverrunErrorHandler:
  1271                           	callstack 21
  1272   001B16                     
  1273                           ;mcc_generated_files/eusart.c: 162:     EUSART_OverrunErrorHandler = interruptHandler;
  1274   001B16  C078  F08D         	movff	EUSART_SetOverrunErrorHandler@interruptHandler,_EUSART_OverrunErrorHandler
  1275   001B1A  C079  F08E         	movff	EUSART_SetOverrunErrorHandler@interruptHandler+1,_EUSART_OverrunErrorHandler+1
  1276   001B1E  0012               	return		;funcret
  1277   001B20                     __end_of_EUSART_SetOverrunErrorHandler:
  1278                           	callstack 0
  1279                           
  1280 ;; *************** function _EUSART_SetFramingErrorHandler *****************
  1281 ;; Defined at:
  1282 ;;		line 157 in file "mcc_generated_files/eusart.c"
  1283 ;; Parameters:    Size  Location     Type
  1284 ;;  interruptHan    2    0[BANK0 ] PTR FTN()void 
  1285 ;;		 -> EUSART_DefaultFramingErrorHandler(1), 
  1286 ;; Auto vars:     Size  Location     Type
  1287 ;;		None
  1288 ;; Return value:  Size  Location     Type
  1289 ;;                  1    wreg      void 
  1290 ;; Registers used:
  1291 ;;		wreg, status,2, status,0
  1292 ;; Tracked objects:
  1293 ;;		On entry : 0/0
  1294 ;;		On exit  : 0/0
  1295 ;;		Unchanged: 0/0
  1296 ;; Data sizes:     COMRAM   BANK0   BANK1   BANK2   BANK3   BANK4   BANK5   BANK6   BANK7   BANK8   BANK9  BANK10  BANK1
      +1  BANK12  BANK13  BANK14  BANK15
  1297 ;;      Params:         0       2       0       0       0       0       0       0       0       0       0       0       
      +0       0       0       0       0
  1298 ;;      Locals:         0       0       0       0       0       0       0       0       0       0       0       0       
      +0       0       0       0       0
  1299 ;;      Temps:          0       0       0       0       0       0       0       0       0       0       0       0       
      +0       0       0       0       0
  1300 ;;      Totals:         0       2       0       0       0       0       0       0       0       0       0       0       
      +0       0       0       0       0
  1301 ;;Total ram usage:        2 bytes
  1302 ;; Hardware stack levels used: 1
  1303 ;; Hardware stack levels required when called: 7
  1304 ;; This function calls:
  1305 ;;		Nothing
  1306 ;; This function is called by:
  1307 ;;		_EUSART_Initialize
  1308 ;; This function uses a non-reentrant model
  1309 ;;
  1310                           
  1311                           	psect	text10
  1312   001B20                     __ptext10:
  1313                           	callstack 0
  1314   001B20                     _EUSART_SetFramingErrorHandler:
  1315                           	callstack 21
  1316   001B20                     
  1317                           ;mcc_generated_files/eusart.c: 158:     EUSART_FramingErrorHandler = interruptHandler;
  1318   001B20  C078  F08F         	movff	EUSART_SetFramingErrorHandler@interruptHandler,_EUSART_FramingErrorHandler
  1319   001B24  C079  F090         	movff	EUSART_SetFramingErrorHandler@interruptHandler+1,_EUSART_FramingErrorHandler+1
  1320   001B28  0012               	return		;funcret
  1321   001B2A                     __end_of_EUSART_SetFramingErrorHandler:
  1322                           	callstack 0
  1323                           
  1324 ;; *************** function _EUSART_SetErrorHandler *****************
  1325 ;; Defined at:
  1326 ;;		line 165 in file "mcc_generated_files/eusart.c"
  1327 ;; Parameters:    Size  Location     Type
  1328 ;;  interruptHan    2    0[BANK0 ] PTR FTN()void 
  1329 ;;		 -> EUSART_DefaultErrorHandler(1), 
  1330 ;; Auto vars:     Size  Location     Type
  1331 ;;		None
  1332 ;; Return value:  Size  Location     Type
  1333 ;;                  1    wreg      void 
  1334 ;; Registers used:
  1335 ;;		wreg, status,2, status,0
  1336 ;; Tracked objects:
  1337 ;;		On entry : 0/0
  1338 ;;		On exit  : 0/0
  1339 ;;		Unchanged: 0/0
  1340 ;; Data sizes:     COMRAM   BANK0   BANK1   BANK2   BANK3   BANK4   BANK5   BANK6   BANK7   BANK8   BANK9  BANK10  BANK1
      +1  BANK12  BANK13  BANK14  BANK15
  1341 ;;      Params:         0       2       0       0       0       0       0       0       0       0       0       0       
      +0       0       0       0       0
  1342 ;;      Locals:         0       0       0       0       0       0       0       0       0       0       0       0       
      +0       0       0       0       0
  1343 ;;      Temps:          0       0       0       0       0       0       0       0       0       0       0       0       
      +0       0       0       0       0
  1344 ;;      Totals:         0       2       0       0       0       0       0       0       0       0       0       0       
      +0       0       0       0       0
  1345 ;;Total ram usage:        2 bytes
  1346 ;; Hardware stack levels used: 1
  1347 ;; Hardware stack levels required when called: 7
  1348 ;; This function calls:
  1349 ;;		Nothing
  1350 ;; This function is called by:
  1351 ;;		_EUSART_Initialize
  1352 ;; This function uses a non-reentrant model
  1353 ;;
  1354                           
  1355                           	psect	text11
  1356   001B2A                     __ptext11:
  1357                           	callstack 0
  1358   001B2A                     _EUSART_SetErrorHandler:
  1359                           	callstack 21
  1360   001B2A                     
  1361                           ;mcc_generated_files/eusart.c: 166:     EUSART_ErrorHandler = interruptHandler;
  1362   001B2A  C078  F08B         	movff	EUSART_SetErrorHandler@interruptHandler,_EUSART_ErrorHandler
  1363   001B2E  C079  F08C         	movff	EUSART_SetErrorHandler@interruptHandler+1,_EUSART_ErrorHandler+1
  1364   001B32  0012               	return		;funcret
  1365   001B34                     __end_of_EUSART_SetErrorHandler:
  1366                           	callstack 0
  1367                           
  1368 ;; *************** function _RealTimeClockDS1307_Get_Date_Time *****************
  1369 ;; Defined at:
  1370 ;;		line 18 in file "Modules/RealTimeClockDS1307/RealTimeClockDS1307.c"
  1371 ;; Parameters:    Size  Location     Type
  1372 ;;		None
  1373 ;; Auto vars:     Size  Location     Type
  1374 ;;		None
  1375 ;; Return value:  Size  Location     Type
  1376 ;;                  6   12[BANK0 ] struct .
  1377 ;; Registers used:
  1378 ;;		wreg, fsr0l, fsr0h, fsr2l, fsr2h, status,2, status,0, prodl, prodh, cstack
  1379 ;; Tracked objects:
  1380 ;;		On entry : 0/0
  1381 ;;		On exit  : 0/0
  1382 ;;		Unchanged: 0/0
  1383 ;; Data sizes:     COMRAM   BANK0   BANK1   BANK2   BANK3   BANK4   BANK5   BANK6   BANK7   BANK8   BANK9  BANK10  BANK1
      +1  BANK12  BANK13  BANK14  BANK15
  1384 ;;      Params:         0       6       0       0       0       0       0       0       0       0       0       0       
      +0       0       0       0       0
  1385 ;;      Locals:         0       0       0       0       0       0       0       0       0       0       0       0       
      +0       0       0       0       0
  1386 ;;      Temps:          0       0       0       0       0       0       0       0       0       0       0       0       
      +0       0       0       0       0
  1387 ;;      Totals:         0       6       0       0       0       0       0       0       0       0       0       0       
      +0       0       0       0       0
  1388 ;;Total ram usage:        6 bytes
  1389 ;; Hardware stack levels used: 1
  1390 ;; Hardware stack levels required when called: 11
  1391 ;; This function calls:
  1392 ;;		_I2C_Read1ByteRegister
  1393 ;; This function is called by:
  1394 ;;		_main
  1395 ;; This function uses a non-reentrant model
  1396 ;;
  1397                           
  1398                           	psect	text12
  1399   0015B0                     __ptext12:
  1400                           	callstack 0
  1401   0015B0                     _RealTimeClockDS1307_Get_Date_Time:
  1402                           	callstack 19
  1403   0015B0                     
  1404                           ;Modules/RealTimeClockDS1307/RealTimeClockDS1307.c: 19:     RealTimeClockDS1307._Second 
      +                          = I2C_Read1ByteRegister( 0xD0, 0x00);
  1405   0015B0  0E00               	movlw	0
  1406   0015B2  0100               	movlb	0	; () banked
  1407   0015B4  6F81               	movwf	I2C_Read1ByteRegister@reg& (0+255),b
  1408   0015B6  0ED0               	movlw	208
  1409   0015B8  ECB2  F009         	call	_I2C_Read1ByteRegister
  1410   0015BC  6E26               	movwf	(_RealTimeClockDS1307@RealTimeClockDS1307$F1698+1)^0,c
  1411                           
  1412                           ;Modules/RealTimeClockDS1307/RealTimeClockDS1307.c: 20:     RealTimeClockDS1307._Minutes
      +                           = I2C_Read1ByteRegister( 0xD0, 0x01);
  1413   0015BE  0E01               	movlw	1
  1414   0015C0  0100               	movlb	0	; () banked
  1415   0015C2  6F81               	movwf	I2C_Read1ByteRegister@reg& (0+255),b
  1416   0015C4  0ED0               	movlw	208
  1417   0015C6  ECB2  F009         	call	_I2C_Read1ByteRegister
  1418   0015CA  6E25               	movwf	_RealTimeClockDS1307@RealTimeClockDS1307$F1698^0,c
  1419                           
  1420                           ;Modules/RealTimeClockDS1307/RealTimeClockDS1307.c: 21:     RealTimeClockDS1307._Hours =
      +                           I2C_Read1ByteRegister( 0xD0, 0x02);
  1421   0015CC  0E02               	movlw	2
  1422   0015CE  0100               	movlb	0	; () banked
  1423   0015D0  6F81               	movwf	I2C_Read1ByteRegister@reg& (0+255),b
  1424   0015D2  0ED0               	movlw	208
  1425   0015D4  ECB2  F009         	call	_I2C_Read1ByteRegister
  1426   0015D8  6E27               	movwf	(_RealTimeClockDS1307@RealTimeClockDS1307$F1698+2)^0,c
  1427                           
  1428                           ;Modules/RealTimeClockDS1307/RealTimeClockDS1307.c: 22:     RealTimeClockDS1307._Day = I
      +                          2C_Read1ByteRegister( 0xD0, 0x04);
  1429   0015DA  0E04               	movlw	4
  1430   0015DC  0100               	movlb	0	; () banked
  1431   0015DE  6F81               	movwf	I2C_Read1ByteRegister@reg& (0+255),b
  1432   0015E0  0ED0               	movlw	208
  1433   0015E2  ECB2  F009         	call	_I2C_Read1ByteRegister
  1434   0015E6  6E28               	movwf	(_RealTimeClockDS1307@RealTimeClockDS1307$F1698+3)^0,c
  1435                           
  1436                           ;Modules/RealTimeClockDS1307/RealTimeClockDS1307.c: 23:     RealTimeClockDS1307._Month =
      +                           I2C_Read1ByteRegister( 0xD0, 0x05);
  1437   0015E8  0E05               	movlw	5
  1438   0015EA  0100               	movlb	0	; () banked
  1439   0015EC  6F81               	movwf	I2C_Read1ByteRegister@reg& (0+255),b
  1440   0015EE  0ED0               	movlw	208
  1441   0015F0  ECB2  F009         	call	_I2C_Read1ByteRegister
  1442   0015F4  6E29               	movwf	(_RealTimeClockDS1307@RealTimeClockDS1307$F1698+4)^0,c
  1443                           
  1444                           ;Modules/RealTimeClockDS1307/RealTimeClockDS1307.c: 24:     RealTimeClockDS1307._Years =
      +                           I2C_Read1ByteRegister( 0xD0, 0x06);
  1445   0015F6  0E06               	movlw	6
  1446   0015F8  0100               	movlb	0	; () banked
  1447   0015FA  6F81               	movwf	I2C_Read1ByteRegister@reg& (0+255),b
  1448   0015FC  0ED0               	movlw	208
  1449   0015FE  ECB2  F009         	call	_I2C_Read1ByteRegister
  1450   001602  6E2A               	movwf	(_RealTimeClockDS1307@RealTimeClockDS1307$F1698+5)^0,c
  1451   001604                     
  1452                           ;Modules/RealTimeClockDS1307/RealTimeClockDS1307.c: 26:     return RealTimeClockDS1307;
  1453   001604  EE20  F025         	lfsr	2,_RealTimeClockDS1307@RealTimeClockDS1307$F1698
  1454   001608  EE00  F084         	lfsr	0,?_RealTimeClockDS1307_Get_Date_Time
  1455   00160C  0E05               	movlw	5
  1456   00160E                     u1371:
  1457   00160E  CFDB FFEB          	movff	plusw2,plusw0
  1458   001612  06E8               	decf	wreg,f,c
  1459   001614  E2FC               	bc	u1371
  1460   001616  0012               	return		;funcret
  1461   001618                     __end_of_RealTimeClockDS1307_Get_Date_Time:
  1462                           	callstack 0
  1463                           
  1464 ;; *************** function _Print_DATE *****************
  1465 ;; Defined at:
  1466 ;;		line 31 in file "Modules/RealTimeClockDS1307/RealTimeClockDS1307.c"
  1467 ;; Parameters:    Size  Location     Type
  1468 ;;		None
  1469 ;; Auto vars:     Size  Location     Type
  1470 ;;		None
  1471 ;; Return value:  Size  Location     Type
  1472 ;;                  1    wreg      void 
  1473 ;; Registers used:
  1474 ;;		wreg, fsr0l, fsr0h, status,2, status,0, tblptrl, tblptrh, tblptru, cstack
  1475 ;; Tracked objects:
  1476 ;;		On entry : 0/0
  1477 ;;		On exit  : 0/0
  1478 ;;		Unchanged: 0/0
  1479 ;; Data sizes:     COMRAM   BANK0   BANK1   BANK2   BANK3   BANK4   BANK5   BANK6   BANK7   BANK8   BANK9  BANK10  BANK1
      +1  BANK12  BANK13  BANK14  BANK15
  1480 ;;      Params:         0       0       0       0       0       0       0       0       0       0       0       0       
      +0       0       0       0       0
  1481 ;;      Locals:         0       0       0       0       0       0       0       0       0       0       0       0       
      +0       0       0       0       0
  1482 ;;      Temps:          0       0       0       0       0       0       0       0       0       0       0       0       
      +0       0       0       0       0
  1483 ;;      Totals:         0       0       0       0       0       0       0       0       0       0       0       0       
      +0       0       0       0       0
  1484 ;;Total ram usage:        0 bytes
  1485 ;; Hardware stack levels used: 1
  1486 ;; Hardware stack levels required when called: 9
  1487 ;; This function calls:
  1488 ;;		_UART_LOGGINGDATA_send_string
  1489 ;; This function is called by:
  1490 ;;		_main
  1491 ;; This function uses a non-reentrant model
  1492 ;;
  1493                           
  1494                           	psect	text13
  1495   001234                     __ptext13:
  1496                           	callstack 0
  1497   001234                     _Print_DATE:
  1498                           	callstack 21
  1499   001234                     
  1500                           ;Modules/RealTimeClockDS1307/RealTimeClockDS1307.c: 32:     DATE_PACK[0] = ((RealTimeClo
      +                          ckDS1307._Day >> 4) + '0');
  1501   001234  3828               	swapf	(_RealTimeClockDS1307@RealTimeClockDS1307$F1698+3)^0,w,c
  1502   001236  0B0F               	andlw	15
  1503   001238  0F30               	addlw	48
  1504   00123A  0100               	movlb	0	; () banked
  1505   00123C  6F66               	movwf	_DATE_PACK& (0+255),b
  1506                           
  1507                           ;Modules/RealTimeClockDS1307/RealTimeClockDS1307.c: 33:     DATE_PACK[1] = ((RealTimeClo
      +                          ckDS1307._Day & 0x0F) + '0');
  1508   00123E  5028               	movf	(_RealTimeClockDS1307@RealTimeClockDS1307$F1698+3)^0,w,c
  1509   001240  0B0F               	andlw	15
  1510   001242  0F30               	addlw	48
  1511   001244  6F67               	movwf	(_DATE_PACK+1)& (0+255),b
  1512   001246                     
  1513                           ; BSR set to: 0
  1514                           ;Modules/RealTimeClockDS1307/RealTimeClockDS1307.c: 34:     DATE_PACK[2] = '-';
  1515   001246  0E2D               	movlw	45
  1516   001248  6F68               	movwf	(_DATE_PACK+2)& (0+255),b
  1517   00124A                     
  1518                           ; BSR set to: 0
  1519                           ;Modules/RealTimeClockDS1307/RealTimeClockDS1307.c: 35:     DATE_PACK[3] = ((RealTimeClo
      +                          ckDS1307._Month >> 4) + '0');
  1520   00124A  3829               	swapf	(_RealTimeClockDS1307@RealTimeClockDS1307$F1698+4)^0,w,c
  1521   00124C  0B0F               	andlw	15
  1522   00124E  0F30               	addlw	48
  1523   001250  6F69               	movwf	(_DATE_PACK+3)& (0+255),b
  1524   001252                     
  1525                           ; BSR set to: 0
  1526                           ;Modules/RealTimeClockDS1307/RealTimeClockDS1307.c: 36:     DATE_PACK[4] = ((RealTimeClo
      +                          ckDS1307._Month & 0x0F) + '0');
  1527   001252  5029               	movf	(_RealTimeClockDS1307@RealTimeClockDS1307$F1698+4)^0,w,c
  1528   001254  0B0F               	andlw	15
  1529   001256  0F30               	addlw	48
  1530   001258  6F6A               	movwf	(_DATE_PACK+4)& (0+255),b
  1531   00125A                     
  1532                           ; BSR set to: 0
  1533                           ;Modules/RealTimeClockDS1307/RealTimeClockDS1307.c: 37:     DATE_PACK[5] = '-';
  1534   00125A  0E2D               	movlw	45
  1535   00125C  6F6B               	movwf	(_DATE_PACK+5)& (0+255),b
  1536                           
  1537                           ;Modules/RealTimeClockDS1307/RealTimeClockDS1307.c: 38:     DATE_PACK[6] = ((RealTimeClo
      +                          ckDS1307._Years >> 4) + '0');
  1538   00125E  382A               	swapf	(_RealTimeClockDS1307@RealTimeClockDS1307$F1698+5)^0,w,c
  1539   001260  0B0F               	andlw	15
  1540   001262  0F30               	addlw	48
  1541   001264  6F6C               	movwf	(_DATE_PACK+6)& (0+255),b
  1542                           
  1543                           ;Modules/RealTimeClockDS1307/RealTimeClockDS1307.c: 39:     DATE_PACK[7] = ((RealTimeClo
      +                          ckDS1307._Years & 0x0F) + '0');
  1544   001266  502A               	movf	(_RealTimeClockDS1307@RealTimeClockDS1307$F1698+5)^0,w,c
  1545   001268  0B0F               	andlw	15
  1546   00126A  0F30               	addlw	48
  1547   00126C  6F6D               	movwf	(_DATE_PACK+7)& (0+255),b
  1548   00126E                     
  1549                           ; BSR set to: 0
  1550                           ;Modules/RealTimeClockDS1307/RealTimeClockDS1307.c: 40:     DATE_PACK[8] = '/';
  1551   00126E  0E2F               	movlw	47
  1552   001270  6F6E               	movwf	(_DATE_PACK+8)& (0+255),b
  1553   001272                     
  1554                           ; BSR set to: 0
  1555                           ;Modules/RealTimeClockDS1307/RealTimeClockDS1307.c: 41:     DATE_PACK[9] = ((RealTimeClo
      +                          ckDS1307._Hours >> 4) + '0');
  1556   001272  3827               	swapf	(_RealTimeClockDS1307@RealTimeClockDS1307$F1698+2)^0,w,c
  1557   001274  0B0F               	andlw	15
  1558   001276  0F30               	addlw	48
  1559   001278  6F6F               	movwf	(_DATE_PACK+9)& (0+255),b
  1560   00127A                     
  1561                           ; BSR set to: 0
  1562                           ;Modules/RealTimeClockDS1307/RealTimeClockDS1307.c: 42:     DATE_PACK[10] = ((RealTimeCl
      +                          ockDS1307._Hours & 0x0F) + '0');
  1563   00127A  5027               	movf	(_RealTimeClockDS1307@RealTimeClockDS1307$F1698+2)^0,w,c
  1564   00127C  0B0F               	andlw	15
  1565   00127E  0F30               	addlw	48
  1566   001280  6F70               	movwf	(_DATE_PACK+10)& (0+255),b
  1567   001282                     
  1568                           ; BSR set to: 0
  1569                           ;Modules/RealTimeClockDS1307/RealTimeClockDS1307.c: 43:     DATE_PACK[11] = '-';
  1570   001282  0E2D               	movlw	45
  1571   001284  6F71               	movwf	(_DATE_PACK+11)& (0+255),b
  1572                           
  1573                           ;Modules/RealTimeClockDS1307/RealTimeClockDS1307.c: 44:     DATE_PACK[12] = ((RealTimeCl
      +                          ockDS1307._Minutes >> 4) + '0');
  1574   001286  3825               	swapf	_RealTimeClockDS1307@RealTimeClockDS1307$F1698^0,w,c
  1575   001288  0B0F               	andlw	15
  1576   00128A  0F30               	addlw	48
  1577   00128C  6F72               	movwf	(_DATE_PACK+12)& (0+255),b
  1578                           
  1579                           ;Modules/RealTimeClockDS1307/RealTimeClockDS1307.c: 45:     DATE_PACK[13] = ((RealTimeCl
      +                          ockDS1307._Minutes & 0x0F) + '0');
  1580   00128E  5025               	movf	_RealTimeClockDS1307@RealTimeClockDS1307$F1698^0,w,c
  1581   001290  0B0F               	andlw	15
  1582   001292  0F30               	addlw	48
  1583   001294  6F73               	movwf	(_DATE_PACK+13)& (0+255),b
  1584   001296                     
  1585                           ; BSR set to: 0
  1586                           ;Modules/RealTimeClockDS1307/RealTimeClockDS1307.c: 46:     DATE_PACK[14] = '-';
  1587   001296  0E2D               	movlw	45
  1588   001298  6F74               	movwf	(_DATE_PACK+14)& (0+255),b
  1589   00129A                     
  1590                           ; BSR set to: 0
  1591                           ;Modules/RealTimeClockDS1307/RealTimeClockDS1307.c: 47:     DATE_PACK[15] = ((RealTimeCl
      +                          ockDS1307._Second >> 4) + '0');
  1592   00129A  3826               	swapf	(_RealTimeClockDS1307@RealTimeClockDS1307$F1698+1)^0,w,c
  1593   00129C  0B0F               	andlw	15
  1594   00129E  0F30               	addlw	48
  1595   0012A0  6F75               	movwf	(_DATE_PACK+15)& (0+255),b
  1596   0012A2                     
  1597                           ; BSR set to: 0
  1598                           ;Modules/RealTimeClockDS1307/RealTimeClockDS1307.c: 48:     DATE_PACK[16] = ((RealTimeCl
      +                          ockDS1307._Second & 0x0F) + '0');
  1599   0012A2  5026               	movf	(_RealTimeClockDS1307@RealTimeClockDS1307$F1698+1)^0,w,c
  1600   0012A4  0B0F               	andlw	15
  1601   0012A6  0F30               	addlw	48
  1602   0012A8  6F76               	movwf	(_DATE_PACK+16)& (0+255),b
  1603   0012AA                     
  1604                           ; BSR set to: 0
  1605                           ;Modules/RealTimeClockDS1307/RealTimeClockDS1307.c: 49:     DATE_PACK[17] = '\r';
  1606   0012AA  0E0D               	movlw	13
  1607   0012AC  6F77               	movwf	(_DATE_PACK+17)& (0+255),b
  1608   0012AE                     
  1609                           ; BSR set to: 0
  1610                           ;Modules/RealTimeClockDS1307/RealTimeClockDS1307.c: 51:     UART_LOGGINGDATA_send_string
      +                          ("Date: ", 6);
  1611   0012AE  0E28               	movlw	low STR_1
  1612   0012B0  6F79               	movwf	UART_LOGGINGDATA_send_string@string& (0+255),b
  1613   0012B2  5179               	movf	UART_LOGGINGDATA_send_string@string& (0+255),w,b
  1614   0012B4  A4D8               	btfss	status,2,c
  1615   0012B6  0E10               	movlw	high __smallconst
  1616   0012B8  6F7A               	movwf	(UART_LOGGINGDATA_send_string@string+1)& (0+255),b
  1617   0012BA  0E06               	movlw	6
  1618   0012BC  6F7B               	movwf	UART_LOGGINGDATA_send_string@string_length& (0+255),b
  1619   0012BE  EC72  F00B         	call	_UART_LOGGINGDATA_send_string	;wreg free
  1620   0012C2                     
  1621                           ;Modules/RealTimeClockDS1307/RealTimeClockDS1307.c: 52:     UART_LOGGINGDATA_send_string
      +                          (DATE_PACK, 18);
  1622   0012C2  0E66               	movlw	low _DATE_PACK
  1623   0012C4  0100               	movlb	0	; () banked
  1624   0012C6  6F79               	movwf	UART_LOGGINGDATA_send_string@string& (0+255),b
  1625   0012C8  6B7A               	clrf	(UART_LOGGINGDATA_send_string@string+1)& (0+255),b
  1626   0012CA  0E12               	movlw	18
  1627   0012CC  6F7B               	movwf	UART_LOGGINGDATA_send_string@string_length& (0+255),b
  1628   0012CE  EC72  F00B         	call	_UART_LOGGINGDATA_send_string	;wreg free
  1629   0012D2  0012               	return		;funcret
  1630   0012D4                     __end_of_Print_DATE:
  1631                           	callstack 0
  1632                           
  1633 ;; *************** function _UART_LOGGINGDATA_send_string *****************
  1634 ;; Defined at:
  1635 ;;		line 11 in file "Modules/Uart_LoggingDate/UART_LoggingDate.c"
  1636 ;; Parameters:    Size  Location     Type
  1637 ;;  string          2    1[BANK0 ] PTR unsigned char 
  1638 ;;		 -> STR_2(7), STR_1(7), DATE_PACK(18), 
  1639 ;;  string_lengt    1    3[BANK0 ] unsigned char 
  1640 ;; Auto vars:     Size  Location     Type
  1641 ;;  l_string_len    2    6[BANK0 ] unsigned short 
  1642 ;; Return value:  Size  Location     Type
  1643 ;;                  1    wreg      void 
  1644 ;; Registers used:
  1645 ;;		wreg, fsr0l, fsr0h, status,2, status,0, tblptrl, tblptrh, tblptru, cstack
  1646 ;; Tracked objects:
  1647 ;;		On entry : 0/0
  1648 ;;		On exit  : 0/0
  1649 ;;		Unchanged: 0/0
  1650 ;; Data sizes:     COMRAM   BANK0   BANK1   BANK2   BANK3   BANK4   BANK5   BANK6   BANK7   BANK8   BANK9  BANK10  BANK1
      +1  BANK12  BANK13  BANK14  BANK15
  1651 ;;      Params:         0       3       0       0       0       0       0       0       0       0       0       0       
      +0       0       0       0       0
  1652 ;;      Locals:         0       2       0       0       0       0       0       0       0       0       0       0       
      +0       0       0       0       0
  1653 ;;      Temps:          0       2       0       0       0       0       0       0       0       0       0       0       
      +0       0       0       0       0
  1654 ;;      Totals:         0       7       0       0       0       0       0       0       0       0       0       0       
      +0       0       0       0       0
  1655 ;;Total ram usage:        7 bytes
  1656 ;; Hardware stack levels used: 1
  1657 ;; Hardware stack levels required when called: 8
  1658 ;; This function calls:
  1659 ;;		_EUSART_Write
  1660 ;; This function is called by:
  1661 ;;		_Print_DATE
  1662 ;;		_main
  1663 ;; This function uses a non-reentrant model
  1664 ;;
  1665                           
  1666                           	psect	text14
  1667   0016E4                     __ptext14:
  1668                           	callstack 0
  1669   0016E4                     _UART_LOGGINGDATA_send_string:
  1670                           	callstack 22
  1671   0016E4                     
  1672                           ;Modules/Uart_LoggingDate/UART_LoggingDate.c: 12:     uint16_t l_string_length = 0;
  1673   0016E4  0E00               	movlw	0
  1674   0016E6  0100               	movlb	0	; () banked
  1675   0016E8  6F7F               	movwf	(UART_LOGGINGDATA_send_string@l_string_length+1)& (0+255),b
  1676   0016EA  0E00               	movlw	0
  1677   0016EC  6F7E               	movwf	UART_LOGGINGDATA_send_string@l_string_length& (0+255),b
  1678                           
  1679                           ;Modules/Uart_LoggingDate/UART_LoggingDate.c: 13:     for(l_string_length = 0; l_string_
      +                          length < string_length; ++l_string_length){
  1680   0016EE  0E00               	movlw	0
  1681   0016F0  6F7F               	movwf	(UART_LOGGINGDATA_send_string@l_string_length+1)& (0+255),b
  1682   0016F2  0E00               	movlw	0
  1683   0016F4  6F7E               	movwf	UART_LOGGINGDATA_send_string@l_string_length& (0+255),b
  1684   0016F6  EF95  F00B         	goto	l3513
  1685   0016FA                     l3507:
  1686                           
  1687                           ; BSR set to: 0
  1688                           ;Modules/Uart_LoggingDate/UART_LoggingDate.c: 14:         EUSART_Write(*string++);
  1689   0016FA  C079  FFF6         	movff	UART_LOGGINGDATA_send_string@string,tblptrl
  1690   0016FE  C07A  FFF7         	movff	UART_LOGGINGDATA_send_string@string+1,tblptrh
  1691   001702  0E00               	movlw	low (__smallconst shr (0+16))
  1692   001704  6EF8               	movwf	tblptru,c
  1693   001706  0E0F               	movlw	(high __ramtop+-1)
  1694   001708  64F7               	cpfsgt	tblptrh,c
  1695   00170A  D003               	bra	u1357
  1696   00170C  0008               	tblrd		*
  1697   00170E  50F5               	movf	tablat,w,c
  1698   001710  D005               	bra	u1350
  1699   001712                     u1357:
  1700   001712  CFF6 FFE9          	movff	tblptrl,fsr0l
  1701   001716  CFF7 FFEA          	movff	tblptrh,fsr0h
  1702   00171A  50EF               	movf	indf0,w,c
  1703   00171C                     u1350:
  1704   00171C  EC13  F00D         	call	_EUSART_Write
  1705   001720  0100               	movlb	0	; () banked
  1706   001722  4B79               	infsnz	UART_LOGGINGDATA_send_string@string& (0+255),f,b
  1707   001724  2B7A               	incf	(UART_LOGGINGDATA_send_string@string+1)& (0+255),f,b
  1708   001726                     
  1709                           ; BSR set to: 0
  1710                           ;Modules/Uart_LoggingDate/UART_LoggingDate.c: 15:     }
  1711   001726  4B7E               	infsnz	UART_LOGGINGDATA_send_string@l_string_length& (0+255),f,b
  1712   001728  2B7F               	incf	(UART_LOGGINGDATA_send_string@l_string_length+1)& (0+255),f,b
  1713   00172A                     l3513:
  1714                           
  1715                           ; BSR set to: 0
  1716   00172A  517B               	movf	UART_LOGGINGDATA_send_string@string_length& (0+255),w,b
  1717   00172C  6F7C               	movwf	??_UART_LOGGINGDATA_send_string& (0+255),b
  1718   00172E  6B7D               	clrf	(??_UART_LOGGINGDATA_send_string+1)& (0+255),b
  1719   001730  517C               	movf	??_UART_LOGGINGDATA_send_string& (0+255),w,b
  1720   001732  5D7E               	subwf	UART_LOGGINGDATA_send_string@l_string_length& (0+255),w,b
  1721   001734  517D               	movf	(??_UART_LOGGINGDATA_send_string+1)& (0+255),w,b
  1722   001736  597F               	subwfb	(UART_LOGGINGDATA_send_string@l_string_length+1)& (0+255),w,b
  1723   001738  A0D8               	btfss	status,0,c
  1724   00173A  EFA1  F00B         	goto	u1361
  1725   00173E  EFA3  F00B         	goto	u1360
  1726   001742                     u1361:
  1727   001742  EF7D  F00B         	goto	l3507
  1728   001746                     u1360:
  1729   001746                     
  1730                           ; BSR set to: 0
  1731   001746  0012               	return		;funcret
  1732   001748                     __end_of_UART_LOGGINGDATA_send_string:
  1733                           	callstack 0
  1734                           
  1735 ;; *************** function _EUSART_Write *****************
  1736 ;; Defined at:
  1737 ;;		line 132 in file "mcc_generated_files/eusart.c"
  1738 ;; Parameters:    Size  Location     Type
  1739 ;;  txData          1    wreg     unsigned char 
  1740 ;; Auto vars:     Size  Location     Type
  1741 ;;  txData          1    0[BANK0 ] unsigned char 
  1742 ;; Return value:  Size  Location     Type
  1743 ;;                  1    wreg      void 
  1744 ;; Registers used:
  1745 ;;		wreg
  1746 ;; Tracked objects:
  1747 ;;		On entry : 0/0
  1748 ;;		On exit  : 0/0
  1749 ;;		Unchanged: 0/0
  1750 ;; Data sizes:     COMRAM   BANK0   BANK1   BANK2   BANK3   BANK4   BANK5   BANK6   BANK7   BANK8   BANK9  BANK10  BANK1
      +1  BANK12  BANK13  BANK14  BANK15
  1751 ;;      Params:         0       0       0       0       0       0       0       0       0       0       0       0       
      +0       0       0       0       0
  1752 ;;      Locals:         0       1       0       0       0       0       0       0       0       0       0       0       
      +0       0       0       0       0
  1753 ;;      Temps:          0       0       0       0       0       0       0       0       0       0       0       0       
      +0       0       0       0       0
  1754 ;;      Totals:         0       1       0       0       0       0       0       0       0       0       0       0       
      +0       0       0       0       0
  1755 ;;Total ram usage:        1 bytes
  1756 ;; Hardware stack levels used: 1
  1757 ;; Hardware stack levels required when called: 7
  1758 ;; This function calls:
  1759 ;;		Nothing
  1760 ;; This function is called by:
  1761 ;;		_UART_LOGGINGDATA_send_string
  1762 ;; This function uses a non-reentrant model
  1763 ;;
  1764                           
  1765                           	psect	text15
  1766   001A26                     __ptext15:
  1767                           	callstack 0
  1768   001A26                     _EUSART_Write:
  1769                           	callstack 22
  1770                           
  1771                           ; BSR set to: 0
  1772                           ;incstack = 0
  1773                           ;EUSART_Write@txData stored from wreg
  1774   001A26  0100               	movlb	0	; () banked
  1775   001A28  6F78               	movwf	EUSART_Write@txData& (0+255),b
  1776   001A2A                     l661:
  1777                           
  1778                           ;mcc_generated_files/eusart.c: 134:     while(0 == PIR1bits.TX1IF)
  1779   001A2A  A89E               	btfss	158,4,c	;volatile
  1780   001A2C  EF1A  F00D         	goto	u1251
  1781   001A30  EF1C  F00D         	goto	u1250
  1782   001A34                     u1251:
  1783   001A34  EF15  F00D         	goto	l661
  1784   001A38                     u1250:
  1785   001A38                     
  1786                           ;mcc_generated_files/eusart.c: 138:     TXREG = txData;
  1787   001A38  C078  FFAD         	movff	EUSART_Write@txData,4013	;volatile
  1788   001A3C  0012               	return		;funcret
  1789   001A3E                     __end_of_EUSART_Write:
  1790                           	callstack 0
  1791                           
  1792 ;; *************** function _EEPROM_240C02C_Write_Byte *****************
  1793 ;; Defined at:
  1794 ;;		line 11 in file "Modules/EEPROM_24C02C/EEPROM_24C02C.c"
  1795 ;; Parameters:    Size  Location     Type
  1796 ;;  EEPROM_Addre    1    wreg     unsigned char 
  1797 ;;  Byte_Address    1   12[BANK0 ] unsigned char 
  1798 ;;  Data            1   13[BANK0 ] unsigned char 
  1799 ;; Auto vars:     Size  Location     Type
  1800 ;;  EEPROM_Addre    1   14[BANK0 ] unsigned char 
  1801 ;; Return value:  Size  Location     Type
  1802 ;;                  1    wreg      void 
  1803 ;; Registers used:
  1804 ;;		wreg, fsr2l, fsr2h, status,2, status,0, prodl, prodh, cstack
  1805 ;; Tracked objects:
  1806 ;;		On entry : 0/0
  1807 ;;		On exit  : 0/0
  1808 ;;		Unchanged: 0/0
  1809 ;; Data sizes:     COMRAM   BANK0   BANK1   BANK2   BANK3   BANK4   BANK5   BANK6   BANK7   BANK8   BANK9  BANK10  BANK1
      +1  BANK12  BANK13  BANK14  BANK15
  1810 ;;      Params:         0       2       0       0       0       0       0       0       0       0       0       0       
      +0       0       0       0       0
  1811 ;;      Locals:         0       1       0       0       0       0       0       0       0       0       0       0       
      +0       0       0       0       0
  1812 ;;      Temps:          0       0       0       0       0       0       0       0       0       0       0       0       
      +0       0       0       0       0
  1813 ;;      Totals:         0       3       0       0       0       0       0       0       0       0       0       0       
      +0       0       0       0       0
  1814 ;;Total ram usage:        3 bytes
  1815 ;; Hardware stack levels used: 1
  1816 ;; Hardware stack levels required when called: 11
  1817 ;; This function calls:
  1818 ;;		_I2C_Write1ByteRegister
  1819 ;; This function is called by:
  1820 ;;		_main
  1821 ;; This function uses a non-reentrant model
  1822 ;;
  1823                           
  1824                           	psect	text16
  1825   001AB4                     __ptext16:
  1826                           	callstack 0
  1827   001AB4                     _EEPROM_240C02C_Write_Byte:
  1828                           	callstack 19
  1829                           
  1830                           ;incstack = 0
  1831                           ;EEPROM_240C02C_Write_Byte@EEPROM_Address stored from wreg
  1832   001AB4  0100               	movlb	0	; () banked
  1833   001AB6  6F86               	movwf	EEPROM_240C02C_Write_Byte@EEPROM_Address& (0+255),b
  1834   001AB8                     
  1835                           ;Modules/EEPROM_24C02C/EEPROM_24C02C.c: 12:     I2C_Write1ByteRegister(EEPROM_Address, B
      +                          yte_Address, Data);
  1836   001AB8  C084  F081         	movff	EEPROM_240C02C_Write_Byte@Byte_Address,I2C_Write1ByteRegister@reg
  1837   001ABC  C085  F082         	movff	EEPROM_240C02C_Write_Byte@Data,I2C_Write1ByteRegister@data
  1838   001AC0  0100               	movlb	0	; () banked
  1839   001AC2  5186               	movf	EEPROM_240C02C_Write_Byte@EEPROM_Address& (0+255),w,b
  1840   001AC4  EC69  F00A         	call	_I2C_Write1ByteRegister
  1841   001AC8  0012               	return		;funcret
  1842   001ACA                     __end_of_EEPROM_240C02C_Write_Byte:
  1843                           	callstack 0
  1844                           
  1845 ;; *************** function _I2C_Write1ByteRegister *****************
  1846 ;; Defined at:
  1847 ;;		line 91 in file "mcc_generated_files/examples/i2c_master_example.c"
  1848 ;; Parameters:    Size  Location     Type
  1849 ;;  address         1    wreg     unsigned char 
  1850 ;;  reg             1    9[BANK0 ] unsigned char 
  1851 ;;  data            1   10[BANK0 ] unsigned char 
  1852 ;; Auto vars:     Size  Location     Type
  1853 ;;  address         1   11[BANK0 ] unsigned char 
  1854 ;; Return value:  Size  Location     Type
  1855 ;;                  1    wreg      void 
  1856 ;; Registers used:
  1857 ;;		wreg, fsr2l, fsr2h, status,2, status,0, prodl, prodh, cstack
  1858 ;; Tracked objects:
  1859 ;;		On entry : 0/0
  1860 ;;		On exit  : 0/0
  1861 ;;		Unchanged: 0/0
  1862 ;; Data sizes:     COMRAM   BANK0   BANK1   BANK2   BANK3   BANK4   BANK5   BANK6   BANK7   BANK8   BANK9  BANK10  BANK1
      +1  BANK12  BANK13  BANK14  BANK15
  1863 ;;      Params:         0       2       0       0       0       0       0       0       0       0       0       0       
      +0       0       0       0       0
  1864 ;;      Locals:         0       1       0       0       0       0       0       0       0       0       0       0       
      +0       0       0       0       0
  1865 ;;      Temps:          0       0       0       0       0       0       0       0       0       0       0       0       
      +0       0       0       0       0
  1866 ;;      Totals:         0       3       0       0       0       0       0       0       0       0       0       0       
      +0       0       0       0       0
  1867 ;;Total ram usage:        3 bytes
  1868 ;; Hardware stack levels used: 1
  1869 ;; Hardware stack levels required when called: 10
  1870 ;; This function calls:
  1871 ;;		_I2C_Close
  1872 ;;		_I2C_MasterWrite
  1873 ;;		_I2C_Open
  1874 ;;		_I2C_SetAddressNackCallback
  1875 ;;		_I2C_SetBuffer
  1876 ;;		_I2C_SetDataCompleteCallback
  1877 ;; This function is called by:
  1878 ;;		_EEPROM_240C02C_Write_Byte
  1879 ;;		_main
  1880 ;; This function uses a non-reentrant model
  1881 ;;
  1882                           
  1883                           	psect	text17
  1884   0014D2                     __ptext17:
  1885                           	callstack 0
  1886   0014D2                     _I2C_Write1ByteRegister:
  1887                           	callstack 20
  1888                           
  1889                           ;incstack = 0
  1890                           ;I2C_Write1ByteRegister@address stored from wreg
  1891   0014D2  0100               	movlb	0	; () banked
  1892   0014D4  6F83               	movwf	I2C_Write1ByteRegister@address& (0+255),b
  1893   0014D6                     l3453:
  1894   0014D6  0100               	movlb	0	; () banked
  1895   0014D8  5183               	movf	I2C_Write1ByteRegister@address& (0+255),w,b
  1896   0014DA  ECC9  F008         	call	_I2C_Open
  1897   0014DE  0900               	iorlw	0
  1898   0014E0  B4D8               	btfsc	status,2,c
  1899   0014E2  EF75  F00A         	goto	u1301
  1900   0014E6  EF77  F00A         	goto	u1300
  1901   0014EA                     u1301:
  1902   0014EA  EF6B  F00A         	goto	l3453
  1903   0014EE                     u1300:
  1904   0014EE                     
  1905                           ;mcc_generated_files/examples/i2c_master_example.c: 94:     I2C_SetDataCompleteCallback(
      +                          wr1RegCompleteHandler,&data);
  1906   0014EE  0ED4               	movlw	low _wr1RegCompleteHandler
  1907   0014F0  0100               	movlb	0	; () banked
  1908   0014F2  6F7D               	movwf	I2C_SetDataCompleteCallback@cb& (0+255),b
  1909   0014F4  0E18               	movlw	high _wr1RegCompleteHandler
  1910   0014F6  6F7E               	movwf	(I2C_SetDataCompleteCallback@cb+1)& (0+255),b
  1911   0014F8  0E82               	movlw	low I2C_Write1ByteRegister@data
  1912   0014FA  6F7F               	movwf	I2C_SetDataCompleteCallback@ptr& (0+255),b
  1913   0014FC  6B80               	clrf	(I2C_SetDataCompleteCallback@ptr+1)& (0+255),b
  1914   0014FE  EC2B  F00D         	call	_I2C_SetDataCompleteCallback	;wreg free
  1915   001502                     
  1916                           ;mcc_generated_files/examples/i2c_master_example.c: 95:     I2C_SetBuffer(&reg,1);
  1917   001502  0E81               	movlw	low I2C_Write1ByteRegister@reg
  1918   001504  0100               	movlb	0	; () banked
  1919   001506  6F78               	movwf	I2C_SetBuffer@buffer& (0+255),b
  1920   001508  6B79               	clrf	(I2C_SetBuffer@buffer+1)& (0+255),b
  1921   00150A  0E00               	movlw	0
  1922   00150C  6F7B               	movwf	(I2C_SetBuffer@bufferSize+1)& (0+255),b
  1923   00150E  0E01               	movlw	1
  1924   001510  6F7A               	movwf	I2C_SetBuffer@bufferSize& (0+255),b
  1925   001512  ECD3  F00C         	call	_I2C_SetBuffer	;wreg free
  1926   001516                     
  1927                           ;mcc_generated_files/examples/i2c_master_example.c: 96:     I2C_SetAddressNackCallback((
      +                          (void*)0),((void*)0));
  1928   001516  0E00               	movlw	0
  1929   001518  0100               	movlb	0	; () banked
  1930   00151A  6F7D               	movwf	I2C_SetAddressNackCallback@cb& (0+255),b
  1931   00151C  0E00               	movlw	0
  1932   00151E  6F7E               	movwf	(I2C_SetAddressNackCallback@cb+1)& (0+255),b
  1933   001520  0E00               	movlw	0
  1934   001522  6F7F               	movwf	I2C_SetAddressNackCallback@ptr& (0+255),b
  1935   001524  0E00               	movlw	0
  1936   001526  6F80               	movwf	(I2C_SetAddressNackCallback@ptr+1)& (0+255),b
  1937   001528  EC37  F00D         	call	_I2C_SetAddressNackCallback	;wreg free
  1938   00152C                     
  1939                           ;mcc_generated_files/examples/i2c_master_example.c: 97:     I2C_MasterWrite();
  1940   00152C  ECB2  F00D         	call	_I2C_MasterWrite	;wreg free
  1941   001530                     l3463:
  1942   001530  EC53  F00C         	call	_I2C_Close	;wreg free
  1943   001534  06E8               	decf	wreg,f,c
  1944   001536  B4D8               	btfsc	status,2,c
  1945   001538  EFA0  F00A         	goto	u1311
  1946   00153C  EFA2  F00A         	goto	u1310
  1947   001540                     u1311:
  1948   001540  EF98  F00A         	goto	l3463
  1949   001544                     u1310:
  1950   001544  0012               	return		;funcret
  1951   001546                     __end_of_I2C_Write1ByteRegister:
  1952                           	callstack 0
  1953                           
  1954 ;; *************** function _EEPROM_240C02C_Read_Byte *****************
  1955 ;; Defined at:
  1956 ;;		line 14 in file "Modules/EEPROM_24C02C/EEPROM_24C02C.c"
  1957 ;; Parameters:    Size  Location     Type
  1958 ;;  EEPROM_Addre    1    wreg     unsigned char 
  1959 ;;  Byte_Address    1   12[BANK0 ] unsigned char 
  1960 ;; Auto vars:     Size  Location     Type
  1961 ;;  EEPROM_Addre    1   13[BANK0 ] unsigned char 
  1962 ;;  Rec_Value       1   14[BANK0 ] unsigned char 
  1963 ;; Return value:  Size  Location     Type
  1964 ;;                  1    wreg      unsigned char 
  1965 ;; Registers used:
  1966 ;;		wreg, fsr2l, fsr2h, status,2, status,0, prodl, prodh, cstack
  1967 ;; Tracked objects:
  1968 ;;		On entry : 0/0
  1969 ;;		On exit  : 0/0
  1970 ;;		Unchanged: 0/0
  1971 ;; Data sizes:     COMRAM   BANK0   BANK1   BANK2   BANK3   BANK4   BANK5   BANK6   BANK7   BANK8   BANK9  BANK10  BANK1
      +1  BANK12  BANK13  BANK14  BANK15
  1972 ;;      Params:         0       1       0       0       0       0       0       0       0       0       0       0       
      +0       0       0       0       0
  1973 ;;      Locals:         0       2       0       0       0       0       0       0       0       0       0       0       
      +0       0       0       0       0
  1974 ;;      Temps:          0       0       0       0       0       0       0       0       0       0       0       0       
      +0       0       0       0       0
  1975 ;;      Totals:         0       3       0       0       0       0       0       0       0       0       0       0       
      +0       0       0       0       0
  1976 ;;Total ram usage:        3 bytes
  1977 ;; Hardware stack levels used: 1
  1978 ;; Hardware stack levels required when called: 11
  1979 ;; This function calls:
  1980 ;;		_I2C_Read1ByteRegister
  1981 ;; This function is called by:
  1982 ;;		_main
  1983 ;; This function uses a non-reentrant model
  1984 ;;
  1985                           
  1986                           	psect	text18
  1987   001A3E                     __ptext18:
  1988                           	callstack 0
  1989   001A3E                     _EEPROM_240C02C_Read_Byte:
  1990                           	callstack 19
  1991                           
  1992                           ;incstack = 0
  1993                           ;EEPROM_240C02C_Read_Byte@EEPROM_Address stored from wreg
  1994   001A3E  0100               	movlb	0	; () banked
  1995   001A40  6F85               	movwf	EEPROM_240C02C_Read_Byte@EEPROM_Address& (0+255),b
  1996   001A42                     
  1997                           ;Modules/EEPROM_24C02C/EEPROM_24C02C.c: 16:     Rec_Value = I2C_Read1ByteRegister(EEPROM
      +                          _Address, Byte_Address);
  1998   001A42  C084  F081         	movff	EEPROM_240C02C_Read_Byte@Byte_Address,I2C_Read1ByteRegister@reg
  1999   001A46  0100               	movlb	0	; () banked
  2000   001A48  5185               	movf	EEPROM_240C02C_Read_Byte@EEPROM_Address& (0+255),w,b
  2001   001A4A  ECB2  F009         	call	_I2C_Read1ByteRegister
  2002   001A4E  0100               	movlb	0	; () banked
  2003   001A50  6F86               	movwf	EEPROM_240C02C_Read_Byte@Rec_Value& (0+255),b
  2004   001A52                     
  2005                           ; BSR set to: 0
  2006                           ;Modules/EEPROM_24C02C/EEPROM_24C02C.c: 17:     return Rec_Value;
  2007   001A52  5186               	movf	EEPROM_240C02C_Read_Byte@Rec_Value& (0+255),w,b
  2008   001A54                     
  2009                           ; BSR set to: 0
  2010   001A54  0012               	return		;funcret
  2011   001A56                     __end_of_EEPROM_240C02C_Read_Byte:
  2012                           	callstack 0
  2013                           
  2014 ;; *************** function _I2C_Read1ByteRegister *****************
  2015 ;; Defined at:
  2016 ;;		line 63 in file "mcc_generated_files/examples/i2c_master_example.c"
  2017 ;; Parameters:    Size  Location     Type
  2018 ;;  address         1    wreg     unsigned char 
  2019 ;;  reg             1    9[BANK0 ] unsigned char 
  2020 ;; Auto vars:     Size  Location     Type
  2021 ;;  address         1   10[BANK0 ] unsigned char 
  2022 ;;  returnValue     1   11[BANK0 ] unsigned char 
  2023 ;; Return value:  Size  Location     Type
  2024 ;;                  1    wreg      unsigned char 
  2025 ;; Registers used:
  2026 ;;		wreg, fsr2l, fsr2h, status,2, status,0, prodl, prodh, cstack
  2027 ;; Tracked objects:
  2028 ;;		On entry : 0/0
  2029 ;;		On exit  : 0/0
  2030 ;;		Unchanged: 0/0
  2031 ;; Data sizes:     COMRAM   BANK0   BANK1   BANK2   BANK3   BANK4   BANK5   BANK6   BANK7   BANK8   BANK9  BANK10  BANK1
      +1  BANK12  BANK13  BANK14  BANK15
  2032 ;;      Params:         0       1       0       0       0       0       0       0       0       0       0       0       
      +0       0       0       0       0
  2033 ;;      Locals:         0       2       0       0       0       0       0       0       0       0       0       0       
      +0       0       0       0       0
  2034 ;;      Temps:          0       0       0       0       0       0       0       0       0       0       0       0       
      +0       0       0       0       0
  2035 ;;      Totals:         0       3       0       0       0       0       0       0       0       0       0       0       
      +0       0       0       0       0
  2036 ;;Total ram usage:        3 bytes
  2037 ;; Hardware stack levels used: 1
  2038 ;; Hardware stack levels required when called: 10
  2039 ;; This function calls:
  2040 ;;		_I2C_Close
  2041 ;;		_I2C_MasterWrite
  2042 ;;		_I2C_Open
  2043 ;;		_I2C_SetAddressNackCallback
  2044 ;;		_I2C_SetBuffer
  2045 ;;		_I2C_SetDataCompleteCallback
  2046 ;; This function is called by:
  2047 ;;		_EEPROM_240C02C_Read_Byte
  2048 ;;		_RealTimeClockDS1307_Get_Date_Time
  2049 ;; This function uses a non-reentrant model
  2050 ;;
  2051                           
  2052                           	psect	text19
  2053   001364                     __ptext19:
  2054                           	callstack 0
  2055   001364                     _I2C_Read1ByteRegister:
  2056                           	callstack 19
  2057                           
  2058                           ; BSR set to: 0
  2059                           ;incstack = 0
  2060                           ;I2C_Read1ByteRegister@address stored from wreg
  2061   001364  0100               	movlb	0	; () banked
  2062   001366  6F82               	movwf	I2C_Read1ByteRegister@address& (0+255),b
  2063   001368                     
  2064                           ;mcc_generated_files/examples/i2c_master_example.c: 63: uint8_t I2C_Read1ByteRegister(i2
      +                          c_address_t address, uint8_t reg);mcc_generated_files/examples/i2c_master_example.c: 64:
      +                           {;mcc_generated_files/examples/i2c_master_example.c: 65:     uint8_t returnValue = 0x00
      +                          ;
  2065   001368  0E00               	movlw	0
  2066   00136A  0100               	movlb	0	; () banked
  2067   00136C  6F83               	movwf	I2C_Read1ByteRegister@returnValue& (0+255),b
  2068   00136E                     l3417:
  2069   00136E  0100               	movlb	0	; () banked
  2070   001370  5182               	movf	I2C_Read1ByteRegister@address& (0+255),w,b
  2071   001372  ECC9  F008         	call	_I2C_Open
  2072   001376  0900               	iorlw	0
  2073   001378  B4D8               	btfsc	status,2,c
  2074   00137A  EFC1  F009         	goto	u1261
  2075   00137E  EFC3  F009         	goto	u1260
  2076   001382                     u1261:
  2077   001382  EFB7  F009         	goto	l3417
  2078   001386                     u1260:
  2079   001386                     
  2080                           ;mcc_generated_files/examples/i2c_master_example.c: 68:     I2C_SetDataCompleteCallback(
      +                          rd1RegCompleteHandler,&returnValue);
  2081   001386  0E2C               	movlw	low _rd1RegCompleteHandler
  2082   001388  0100               	movlb	0	; () banked
  2083   00138A  6F7D               	movwf	I2C_SetDataCompleteCallback@cb& (0+255),b
  2084   00138C  0E19               	movlw	high _rd1RegCompleteHandler
  2085   00138E  6F7E               	movwf	(I2C_SetDataCompleteCallback@cb+1)& (0+255),b
  2086   001390  0E83               	movlw	low I2C_Read1ByteRegister@returnValue
  2087   001392  6F7F               	movwf	I2C_SetDataCompleteCallback@ptr& (0+255),b
  2088   001394  6B80               	clrf	(I2C_SetDataCompleteCallback@ptr+1)& (0+255),b
  2089   001396  EC2B  F00D         	call	_I2C_SetDataCompleteCallback	;wreg free
  2090   00139A                     
  2091                           ;mcc_generated_files/examples/i2c_master_example.c: 69:     I2C_SetBuffer(&reg,1);
  2092   00139A  0E81               	movlw	low I2C_Read1ByteRegister@reg
  2093   00139C  0100               	movlb	0	; () banked
  2094   00139E  6F78               	movwf	I2C_SetBuffer@buffer& (0+255),b
  2095   0013A0  6B79               	clrf	(I2C_SetBuffer@buffer+1)& (0+255),b
  2096   0013A2  0E00               	movlw	0
  2097   0013A4  6F7B               	movwf	(I2C_SetBuffer@bufferSize+1)& (0+255),b
  2098   0013A6  0E01               	movlw	1
  2099   0013A8  6F7A               	movwf	I2C_SetBuffer@bufferSize& (0+255),b
  2100   0013AA  ECD3  F00C         	call	_I2C_SetBuffer	;wreg free
  2101   0013AE                     
  2102                           ;mcc_generated_files/examples/i2c_master_example.c: 70:     I2C_SetAddressNackCallback((
      +                          (void*)0),((void*)0));
  2103   0013AE  0E00               	movlw	0
  2104   0013B0  0100               	movlb	0	; () banked
  2105   0013B2  6F7D               	movwf	I2C_SetAddressNackCallback@cb& (0+255),b
  2106   0013B4  0E00               	movlw	0
  2107   0013B6  6F7E               	movwf	(I2C_SetAddressNackCallback@cb+1)& (0+255),b
  2108   0013B8  0E00               	movlw	0
  2109   0013BA  6F7F               	movwf	I2C_SetAddressNackCallback@ptr& (0+255),b
  2110   0013BC  0E00               	movlw	0
  2111   0013BE  6F80               	movwf	(I2C_SetAddressNackCallback@ptr+1)& (0+255),b
  2112   0013C0  EC37  F00D         	call	_I2C_SetAddressNackCallback	;wreg free
  2113   0013C4                     
  2114                           ;mcc_generated_files/examples/i2c_master_example.c: 71:     I2C_MasterWrite();
  2115   0013C4  ECB2  F00D         	call	_I2C_MasterWrite	;wreg free
  2116   0013C8                     l3427:
  2117   0013C8  EC53  F00C         	call	_I2C_Close	;wreg free
  2118   0013CC  06E8               	decf	wreg,f,c
  2119   0013CE  B4D8               	btfsc	status,2,c
  2120   0013D0  EFEC  F009         	goto	u1271
  2121   0013D4  EFEE  F009         	goto	u1270
  2122   0013D8                     u1271:
  2123   0013D8  EFE4  F009         	goto	l3427
  2124   0013DC                     u1270:
  2125   0013DC                     
  2126                           ;mcc_generated_files/examples/i2c_master_example.c: 74:     return returnValue;
  2127   0013DC  0100               	movlb	0	; () banked
  2128   0013DE  5183               	movf	I2C_Read1ByteRegister@returnValue& (0+255),w,b
  2129   0013E0                     
  2130                           ; BSR set to: 0
  2131   0013E0  0012               	return		;funcret
  2132   0013E2                     __end_of_I2C_Read1ByteRegister:
  2133                           	callstack 0
  2134                           
  2135 ;; *************** function _I2C_SetDataCompleteCallback *****************
  2136 ;; Defined at:
  2137 ;;		line 274 in file "mcc_generated_files/i2c_master.c"
  2138 ;; Parameters:    Size  Location     Type
  2139 ;;  cb              2    5[BANK0 ] PTR FTN(PTR void ,)enum 
  2140 ;;		 -> NULL(1), rdBlkRegCompleteHandler(1), wr2RegCompleteHandler(1), wr1RegCompleteHandler(1), 
  2141 ;;		 -> rd2RegCompleteHandler(1), rd1RegCompleteHandler(1), 
  2142 ;;  ptr             2    7[BANK0 ] PTR void 
  2143 ;;		 -> I2C_ReadDataBlock@bufferBlock(4), I2C_Write2ByteRegister@data(2), I2C_Write1ByteRegister@data(1), I2C_Read2ByteR
      +egister@returnValue(2), 
  2144 ;;		 -> NULL(0), I2C_Read1ByteRegister@returnValue(1), 
  2145 ;; Auto vars:     Size  Location     Type
  2146 ;;		None
  2147 ;; Return value:  Size  Location     Type
  2148 ;;                  1    wreg      void 
  2149 ;; Registers used:
  2150 ;;		wreg, fsr2l, fsr2h, status,2, status,0, prodl, prodh, cstack
  2151 ;; Tracked objects:
  2152 ;;		On entry : 0/0
  2153 ;;		On exit  : 0/0
  2154 ;;		Unchanged: 0/0
  2155 ;; Data sizes:     COMRAM   BANK0   BANK1   BANK2   BANK3   BANK4   BANK5   BANK6   BANK7   BANK8   BANK9  BANK10  BANK1
      +1  BANK12  BANK13  BANK14  BANK15
  2156 ;;      Params:         0       4       0       0       0       0       0       0       0       0       0       0       
      +0       0       0       0       0
  2157 ;;      Locals:         0       0       0       0       0       0       0       0       0       0       0       0       
      +0       0       0       0       0
  2158 ;;      Temps:          0       0       0       0       0       0       0       0       0       0       0       0       
      +0       0       0       0       0
  2159 ;;      Totals:         0       4       0       0       0       0       0       0       0       0       0       0       
      +0       0       0       0       0
  2160 ;;Total ram usage:        4 bytes
  2161 ;; Hardware stack levels used: 1
  2162 ;; Hardware stack levels required when called: 8
  2163 ;; This function calls:
  2164 ;;		_I2C_SetCallback
  2165 ;; This function is called by:
  2166 ;;		_I2C_Read1ByteRegister
  2167 ;;		_I2C_Read2ByteRegister
  2168 ;;		_I2C_Write1ByteRegister
  2169 ;;		_I2C_Write2ByteRegister
  2170 ;;		_I2C_ReadDataBlock
  2171 ;; This function uses a non-reentrant model
  2172 ;;
  2173                           
  2174                           	psect	text20
  2175   001A56                     __ptext20:
  2176                           	callstack 0
  2177   001A56                     _I2C_SetDataCompleteCallback:
  2178                           	callstack 20
  2179   001A56                     
  2180                           ;mcc_generated_files/i2c_master.c: 274: void I2C_SetDataCompleteCallback(i2c_callback_t 
      +                          cb, void *ptr);mcc_generated_files/i2c_master.c: 275: {;mcc_generated_files/i2c_master.c
      +                          : 276:     I2C_SetCallback(I2C_DATA_COMPLETE, cb, ptr);
  2181   001A56  C07D  F078         	movff	I2C_SetDataCompleteCallback@cb,I2C_SetCallback@cb
  2182   001A5A  C07E  F079         	movff	I2C_SetDataCompleteCallback@cb+1,I2C_SetCallback@cb+1
  2183   001A5E  C07F  F07A         	movff	I2C_SetDataCompleteCallback@ptr,I2C_SetCallback@ptr
  2184   001A62  C080  F07B         	movff	I2C_SetDataCompleteCallback@ptr+1,I2C_SetCallback@ptr+1
  2185   001A66  0E00               	movlw	0
  2186   001A68  ECA3  F00A         	call	_I2C_SetCallback
  2187   001A6C  0012               	return		;funcret
  2188   001A6E                     __end_of_I2C_SetDataCompleteCallback:
  2189                           	callstack 0
  2190                           
  2191 ;; *************** function _I2C_SetBuffer *****************
  2192 ;; Defined at:
  2193 ;;		line 264 in file "mcc_generated_files/i2c_master.c"
  2194 ;; Parameters:    Size  Location     Type
  2195 ;;  buffer          2    0[BANK0 ] PTR void 
  2196 ;;		 -> I2C_ReadDataBlock@reg(1), I2C_ReadDataBlock@bufferBlock(4), I2C_Write2ByteRegister@reg(1), I2C_Write2ByteRegiste
      +r@data(2), 
  2197 ;;		 -> I2C_Write1ByteRegister@reg(1), I2C_Write1ByteRegister@data(1), I2C_Read2ByteRegister@reg(1), I2C_Read2ByteRegist
      +er@returnValue(2), 
  2198 ;;		 -> NULL(0), I2C_Read1ByteRegister@reg(1), I2C_Read1ByteRegister@returnValue(1), 
  2199 ;;  bufferSize      2    2[BANK0 ] unsigned int 
  2200 ;; Auto vars:     Size  Location     Type
  2201 ;;		None
  2202 ;; Return value:  Size  Location     Type
  2203 ;;                  1    wreg      void 
  2204 ;; Registers used:
  2205 ;;		wreg, status,2, status,0
  2206 ;; Tracked objects:
  2207 ;;		On entry : 0/0
  2208 ;;		On exit  : 0/0
  2209 ;;		Unchanged: 0/0
  2210 ;; Data sizes:     COMRAM   BANK0   BANK1   BANK2   BANK3   BANK4   BANK5   BANK6   BANK7   BANK8   BANK9  BANK10  BANK1
      +1  BANK12  BANK13  BANK14  BANK15
  2211 ;;      Params:         0       4       0       0       0       0       0       0       0       0       0       0       
      +0       0       0       0       0
  2212 ;;      Locals:         0       0       0       0       0       0       0       0       0       0       0       0       
      +0       0       0       0       0
  2213 ;;      Temps:          0       0       0       0       0       0       0       0       0       0       0       0       
      +0       0       0       0       0
  2214 ;;      Totals:         0       4       0       0       0       0       0       0       0       0       0       0       
      +0       0       0       0       0
  2215 ;;Total ram usage:        4 bytes
  2216 ;; Hardware stack levels used: 1
  2217 ;; Hardware stack levels required when called: 7
  2218 ;; This function calls:
  2219 ;;		Nothing
  2220 ;; This function is called by:
  2221 ;;		_I2C_Read1ByteRegister
  2222 ;;		_I2C_Read2ByteRegister
  2223 ;;		_I2C_Write1ByteRegister
  2224 ;;		_I2C_Write2ByteRegister
  2225 ;;		_I2C_WriteNBytes
  2226 ;;		_I2C_ReadNBytes
  2227 ;;		_I2C_ReadDataBlock
  2228 ;; This function uses a non-reentrant model
  2229 ;;
  2230                           
  2231                           	psect	text21
  2232   0019A6                     __ptext21:
  2233                           	callstack 0
  2234   0019A6                     _I2C_SetBuffer:
  2235                           	callstack 21
  2236   0019A6                     
  2237                           ;mcc_generated_files/i2c_master.c: 264: void I2C_SetBuffer(void *buffer, size_t bufferSi
      +                          ze);mcc_generated_files/i2c_master.c: 265: {;mcc_generated_files/i2c_master.c: 266:     
      +                          if(I2C_Status.bufferFree)
  2238   0019A6  A624               	btfss	(_I2C_Status+35)^0,3,c
  2239   0019A8  EFD8  F00C         	goto	u1161
  2240   0019AC  EFDA  F00C         	goto	u1160
  2241   0019B0                     u1161:
  2242   0019B0  EFE3  F00C         	goto	l262
  2243   0019B4                     u1160:
  2244   0019B4                     
  2245                           ;mcc_generated_files/i2c_master.c: 267:     {;mcc_generated_files/i2c_master.c: 268:    
      +                               I2C_Status.data_ptr = buffer;
  2246   0019B4  C078  F01E         	movff	I2C_SetBuffer@buffer,_I2C_Status+29
  2247   0019B8  C079  F01F         	movff	I2C_SetBuffer@buffer+1,_I2C_Status+30
  2248   0019BC                     
  2249                           ;mcc_generated_files/i2c_master.c: 269:         I2C_Status.data_length = bufferSize;
  2250   0019BC  C07A  F020         	movff	I2C_SetBuffer@bufferSize,_I2C_Status+31
  2251   0019C0  C07B  F021         	movff	I2C_SetBuffer@bufferSize+1,_I2C_Status+32
  2252   0019C4                     
  2253                           ;mcc_generated_files/i2c_master.c: 270:         I2C_Status.bufferFree = 0;
  2254   0019C4  9624               	bcf	(_I2C_Status+35)^0,3,c
  2255   0019C6                     l262:
  2256   0019C6  0012               	return		;funcret
  2257   0019C8                     __end_of_I2C_SetBuffer:
  2258                           	callstack 0
  2259                           
  2260 ;; *************** function _I2C_SetAddressNackCallback *****************
  2261 ;; Defined at:
  2262 ;;		line 284 in file "mcc_generated_files/i2c_master.c"
  2263 ;; Parameters:    Size  Location     Type
  2264 ;;  cb              2    5[BANK0 ] PTR FTN(PTR void ,)enum 
  2265 ;;		 -> NULL(1), 
  2266 ;;  ptr             2    7[BANK0 ] PTR void 
  2267 ;;		 -> NULL(0), 
  2268 ;; Auto vars:     Size  Location     Type
  2269 ;;		None
  2270 ;; Return value:  Size  Location     Type
  2271 ;;                  1    wreg      void 
  2272 ;; Registers used:
  2273 ;;		wreg, fsr2l, fsr2h, status,2, status,0, prodl, prodh, cstack
  2274 ;; Tracked objects:
  2275 ;;		On entry : 0/0
  2276 ;;		On exit  : 0/0
  2277 ;;		Unchanged: 0/0
  2278 ;; Data sizes:     COMRAM   BANK0   BANK1   BANK2   BANK3   BANK4   BANK5   BANK6   BANK7   BANK8   BANK9  BANK10  BANK1
      +1  BANK12  BANK13  BANK14  BANK15
  2279 ;;      Params:         0       4       0       0       0       0       0       0       0       0       0       0       
      +0       0       0       0       0
  2280 ;;      Locals:         0       0       0       0       0       0       0       0       0       0       0       0       
      +0       0       0       0       0
  2281 ;;      Temps:          0       0       0       0       0       0       0       0       0       0       0       0       
      +0       0       0       0       0
  2282 ;;      Totals:         0       4       0       0       0       0       0       0       0       0       0       0       
      +0       0       0       0       0
  2283 ;;Total ram usage:        4 bytes
  2284 ;; Hardware stack levels used: 1
  2285 ;; Hardware stack levels required when called: 8
  2286 ;; This function calls:
  2287 ;;		_I2C_SetCallback
  2288 ;; This function is called by:
  2289 ;;		_I2C_Read1ByteRegister
  2290 ;;		_I2C_Read2ByteRegister
  2291 ;;		_I2C_Write1ByteRegister
  2292 ;;		_I2C_Write2ByteRegister
  2293 ;;		_I2C_WriteNBytes
  2294 ;;		_I2C_ReadDataBlock
  2295 ;; This function uses a non-reentrant model
  2296 ;;
  2297                           
  2298                           	psect	text22
  2299   001A6E                     __ptext22:
  2300                           	callstack 0
  2301   001A6E                     _I2C_SetAddressNackCallback:
  2302                           	callstack 20
  2303   001A6E                     
  2304                           ;mcc_generated_files/i2c_master.c: 284: void I2C_SetAddressNackCallback(i2c_callback_t c
      +                          b, void *ptr);mcc_generated_files/i2c_master.c: 285: {;mcc_generated_files/i2c_master.c:
      +                           286:     I2C_SetCallback(I2C_ADDR_NACK, cb, ptr);
  2305   001A6E  C07D  F078         	movff	I2C_SetAddressNackCallback@cb,I2C_SetCallback@cb
  2306   001A72  C07E  F079         	movff	I2C_SetAddressNackCallback@cb+1,I2C_SetCallback@cb+1
  2307   001A76  C07F  F07A         	movff	I2C_SetAddressNackCallback@ptr,I2C_SetCallback@ptr
  2308   001A7A  C080  F07B         	movff	I2C_SetAddressNackCallback@ptr+1,I2C_SetCallback@ptr+1
  2309   001A7E  0E02               	movlw	2
  2310   001A80  ECA3  F00A         	call	_I2C_SetCallback
  2311   001A84  0012               	return		;funcret
  2312   001A86                     __end_of_I2C_SetAddressNackCallback:
  2313                           	callstack 0
  2314                           
  2315 ;; *************** function _I2C_SetCallback *****************
  2316 ;; Defined at:
  2317 ;;		line 304 in file "mcc_generated_files/i2c_master.c"
  2318 ;; Parameters:    Size  Location     Type
  2319 ;;  idx             1    wreg     enum E3152
  2320 ;;  cb              2    0[BANK0 ] PTR FTN(PTR void ,)enum 
  2321 ;;		 -> NULL(1), rdBlkRegCompleteHandler(1), wr2RegCompleteHandler(1), wr1RegCompleteHandler(1), 
  2322 ;;		 -> rd2RegCompleteHandler(1), rd1RegCompleteHandler(1), 
  2323 ;;  ptr             2    2[BANK0 ] PTR void 
  2324 ;;		 -> I2C_ReadDataBlock@bufferBlock(4), I2C_Write2ByteRegister@data(2), I2C_Write1ByteRegister@data(1), I2C_Read2ByteR
      +egister@returnValue(2), 
  2325 ;;		 -> NULL(0), I2C_Read1ByteRegister@returnValue(1), 
  2326 ;; Auto vars:     Size  Location     Type
  2327 ;;  idx             1    4[BANK0 ] enum E3152
  2328 ;; Return value:  Size  Location     Type
  2329 ;;                  1    wreg      void 
  2330 ;; Registers used:
  2331 ;;		wreg, fsr2l, fsr2h, status,2, status,0, prodl, prodh
  2332 ;; Tracked objects:
  2333 ;;		On entry : 0/0
  2334 ;;		On exit  : 0/0
  2335 ;;		Unchanged: 0/0
  2336 ;; Data sizes:     COMRAM   BANK0   BANK1   BANK2   BANK3   BANK4   BANK5   BANK6   BANK7   BANK8   BANK9  BANK10  BANK1
      +1  BANK12  BANK13  BANK14  BANK15
  2337 ;;      Params:         0       4       0       0       0       0       0       0       0       0       0       0       
      +0       0       0       0       0
  2338 ;;      Locals:         0       1       0       0       0       0       0       0       0       0       0       0       
      +0       0       0       0       0
  2339 ;;      Temps:          0       0       0       0       0       0       0       0       0       0       0       0       
      +0       0       0       0       0
  2340 ;;      Totals:         0       5       0       0       0       0       0       0       0       0       0       0       
      +0       0       0       0       0
  2341 ;;Total ram usage:        5 bytes
  2342 ;; Hardware stack levels used: 1
  2343 ;; Hardware stack levels required when called: 7
  2344 ;; This function calls:
  2345 ;;		Nothing
  2346 ;; This function is called by:
  2347 ;;		_I2C_SetDataCompleteCallback
  2348 ;;		_I2C_SetAddressNackCallback
  2349 ;;		_I2C_SetWriteCollisionCallback
  2350 ;;		_I2C_SetDataNackCallback
  2351 ;;		_I2C_SetTimeoutCallback
  2352 ;; This function uses a non-reentrant model
  2353 ;;
  2354                           
  2355                           	psect	text23
  2356   001546                     __ptext23:
  2357                           	callstack 0
  2358   001546                     _I2C_SetCallback:
  2359                           	callstack 20
  2360                           
  2361                           ;incstack = 0
  2362                           ;I2C_SetCallback@idx stored from wreg
  2363   001546  0100               	movlb	0	; () banked
  2364   001548  6F7C               	movwf	I2C_SetCallback@idx& (0+255),b
  2365   00154A                     
  2366                           ;mcc_generated_files/i2c_master.c: 304: static void I2C_SetCallback(i2c_callbackIndex_t 
      +                          idx, i2c_callback_t cb, void *ptr);mcc_generated_files/i2c_master.c: 305: {;mcc_generate
      +                          d_files/i2c_master.c: 306:     if(cb)
  2367   00154A  0100               	movlb	0	; () banked
  2368   00154C  5178               	movf	I2C_SetCallback@cb& (0+255),w,b
  2369   00154E  1179               	iorwf	(I2C_SetCallback@cb+1)& (0+255),w,b
  2370   001550  B4D8               	btfsc	status,2,c
  2371   001552  EFAD  F00A         	goto	u1131
  2372   001556  EFAF  F00A         	goto	u1130
  2373   00155A                     u1131:
  2374   00155A  EFC5  F00A         	goto	l3135
  2375   00155E                     u1130:
  2376   00155E                     
  2377                           ; BSR set to: 0
  2378                           ;mcc_generated_files/i2c_master.c: 307:     {;mcc_generated_files/i2c_master.c: 308:    
      +                               I2C_Status.callbackTable[idx] = cb;
  2379   00155E  517C               	movf	I2C_SetCallback@idx& (0+255),w,b
  2380   001560  0D02               	mullw	2
  2381   001562  50F3               	movf	243,w,c
  2382   001564  0F01               	addlw	low _I2C_Status
  2383   001566  6ED9               	movwf	fsr2l,c
  2384   001568  6ADA               	clrf	fsr2h,c
  2385   00156A  C078  FFDE         	movff	I2C_SetCallback@cb,postinc2
  2386   00156E  C079  FFDD         	movff	I2C_SetCallback@cb+1,postdec2
  2387                           
  2388                           ;mcc_generated_files/i2c_master.c: 309:         I2C_Status.callbackPayload[idx] = ptr;
  2389   001572  517C               	movf	I2C_SetCallback@idx& (0+255),w,b
  2390   001574  0D02               	mullw	2
  2391   001576  50F3               	movf	243,w,c
  2392   001578  0F0D               	addlw	low (_I2C_Status+12)
  2393   00157A  6ED9               	movwf	fsr2l,c
  2394   00157C  6ADA               	clrf	fsr2h,c
  2395   00157E  C07A  FFDE         	movff	I2C_SetCallback@ptr,postinc2
  2396   001582  C07B  FFDD         	movff	I2C_SetCallback@ptr+1,postdec2
  2397                           
  2398                           ;mcc_generated_files/i2c_master.c: 310:     }
  2399   001586  EFD7  F00A         	goto	l285
  2400   00158A                     l3135:
  2401                           
  2402                           ; BSR set to: 0
  2403                           ;mcc_generated_files/i2c_master.c: 312:     {;mcc_generated_files/i2c_master.c: 313:    
      +                               I2C_Status.callbackTable[idx] = I2C_CallbackReturnStop;
  2404   00158A  517C               	movf	I2C_SetCallback@idx& (0+255),w,b
  2405   00158C  0D02               	mullw	2
  2406   00158E  50F3               	movf	243,w,c
  2407   001590  0F01               	addlw	low _I2C_Status
  2408   001592  6ED9               	movwf	fsr2l,c
  2409   001594  6ADA               	clrf	fsr2h,c
  2410   001596  0EE6               	movlw	low _I2C_CallbackReturnStop
  2411   001598  6EDE               	movwf	postinc2,c
  2412   00159A  0E1B               	movlw	high _I2C_CallbackReturnStop
  2413   00159C  6EDD               	movwf	postdec2,c
  2414                           
  2415                           ;mcc_generated_files/i2c_master.c: 314:         I2C_Status.callbackPayload[idx] = ((void
      +                          *)0);
  2416   00159E  517C               	movf	I2C_SetCallback@idx& (0+255),w,b
  2417   0015A0  0D02               	mullw	2
  2418   0015A2  50F3               	movf	243,w,c
  2419   0015A4  0F0D               	addlw	low (_I2C_Status+12)
  2420   0015A6  6ED9               	movwf	fsr2l,c
  2421   0015A8  6ADA               	clrf	fsr2h,c
  2422   0015AA  6ADE               	clrf	postinc2,c
  2423   0015AC  6ADD               	clrf	postdec2,c
  2424   0015AE                     l285:
  2425                           
  2426                           ; BSR set to: 0
  2427   0015AE  0012               	return		;funcret
  2428   0015B0                     __end_of_I2C_SetCallback:
  2429                           	callstack 0
  2430                           
  2431 ;; *************** function _I2C_Open *****************
  2432 ;; Defined at:
  2433 ;;		line 176 in file "mcc_generated_files/i2c_master.c"
  2434 ;; Parameters:    Size  Location     Type
  2435 ;;  address         1    wreg     unsigned char 
  2436 ;; Auto vars:     Size  Location     Type
  2437 ;;  address         1    2[BANK0 ] unsigned char 
  2438 ;;  returnValue     1    3[BANK0 ] enum E358
  2439 ;; Return value:  Size  Location     Type
  2440 ;;                  1    wreg      enum E358
  2441 ;; Registers used:
  2442 ;;		wreg, status,2, status,0, cstack
  2443 ;; Tracked objects:
  2444 ;;		On entry : 0/0
  2445 ;;		On exit  : 0/0
  2446 ;;		Unchanged: 0/0
  2447 ;; Data sizes:     COMRAM   BANK0   BANK1   BANK2   BANK3   BANK4   BANK5   BANK6   BANK7   BANK8   BANK9  BANK10  BANK1
      +1  BANK12  BANK13  BANK14  BANK15
  2448 ;;      Params:         0       0       0       0       0       0       0       0       0       0       0       0       
      +0       0       0       0       0
  2449 ;;      Locals:         0       2       0       0       0       0       0       0       0       0       0       0       
      +0       0       0       0       0
  2450 ;;      Temps:          0       0       0       0       0       0       0       0       0       0       0       0       
      +0       0       0       0       0
  2451 ;;      Totals:         0       2       0       0       0       0       0       0       0       0       0       0       
      +0       0       0       0       0
  2452 ;;Total ram usage:        2 bytes
  2453 ;; Hardware stack levels used: 1
  2454 ;; Hardware stack levels required when called: 8
  2455 ;; This function calls:
  2456 ;;		_I2C_MasterClearIrq
  2457 ;;		_I2C_MasterEnableIrq
  2458 ;;		_I2C_MasterOpen
  2459 ;;		_I2C_SetInterruptHandler
  2460 ;; This function is called by:
  2461 ;;		_I2C_Read1ByteRegister
  2462 ;;		_I2C_Read2ByteRegister
  2463 ;;		_I2C_Write1ByteRegister
  2464 ;;		_I2C_Write2ByteRegister
  2465 ;;		_I2C_WriteNBytes
  2466 ;;		_I2C_ReadNBytes
  2467 ;;		_I2C_ReadDataBlock
  2468 ;; This function uses a non-reentrant model
  2469 ;;
  2470                           
  2471                           	psect	text24
  2472   001192                     __ptext24:
  2473                           	callstack 0
  2474   001192                     _I2C_Open:
  2475                           	callstack 20
  2476                           
  2477                           ; BSR set to: 0
  2478                           ;incstack = 0
  2479                           ;I2C_Open@address stored from wreg
  2480   001192  0100               	movlb	0	; () banked
  2481   001194  6F7A               	movwf	I2C_Open@address& (0+255),b
  2482   001196                     
  2483                           ;mcc_generated_files/i2c_master.c: 176: i2c_error_t I2C_Open(i2c_address_t address);mcc_
      +                          generated_files/i2c_master.c: 177: {;mcc_generated_files/i2c_master.c: 178:     i2c_erro
      +                          r_t returnValue = I2C_BUSY;
  2484   001196  0E01               	movlw	1
  2485   001198  0100               	movlb	0	; () banked
  2486   00119A  6F7B               	movwf	I2C_Open@returnValue& (0+255),b
  2487   00119C                     
  2488                           ; BSR set to: 0
  2489                           ;mcc_generated_files/i2c_master.c: 180:     if(!I2C_Status.inUse)
  2490   00119C  B424               	btfsc	(_I2C_Status+35)^0,2,c
  2491   00119E  EFD3  F008         	goto	u1151
  2492   0011A2  EFD5  F008         	goto	u1150
  2493   0011A6                     u1151:
  2494   0011A6  EF18  F009         	goto	l3241
  2495   0011AA                     u1150:
  2496   0011AA                     
  2497                           ; BSR set to: 0
  2498                           ;mcc_generated_files/i2c_master.c: 181:     {;mcc_generated_files/i2c_master.c: 182:    
      +                               I2C_Status.address = address;
  2499   0011AA  C07A  F01D         	movff	I2C_Open@address,_I2C_Status+28
  2500   0011AE                     
  2501                           ; BSR set to: 0
  2502                           ;mcc_generated_files/i2c_master.c: 183:         I2C_Status.busy = 0;
  2503   0011AE  9224               	bcf	(_I2C_Status+35)^0,1,c
  2504   0011B0                     
  2505                           ; BSR set to: 0
  2506                           ;mcc_generated_files/i2c_master.c: 184:         I2C_Status.inUse = 1;
  2507   0011B0  8424               	bsf	(_I2C_Status+35)^0,2,c
  2508   0011B2                     
  2509                           ; BSR set to: 0
  2510                           ;mcc_generated_files/i2c_master.c: 185:         I2C_Status.addressNackCheck = 0;
  2511   0011B2  9024               	bcf	(_I2C_Status+35)^0,0,c
  2512   0011B4                     
  2513                           ; BSR set to: 0
  2514                           ;mcc_generated_files/i2c_master.c: 186:         I2C_Status.state = I2C_RESET;
  2515   0011B4  0E0E               	movlw	14
  2516   0011B6  6E22               	movwf	(_I2C_Status+33)^0,c
  2517   0011B8                     
  2518                           ; BSR set to: 0
  2519                           ;mcc_generated_files/i2c_master.c: 187:         I2C_Status.time_out_value = 500;
  2520   0011B8  0E01               	movlw	1
  2521   0011BA  6E1C               	movwf	(_I2C_Status+27)^0,c
  2522   0011BC  0EF4               	movlw	244
  2523   0011BE  6E1B               	movwf	(_I2C_Status+26)^0,c
  2524   0011C0                     
  2525                           ; BSR set to: 0
  2526                           ;mcc_generated_files/i2c_master.c: 188:         I2C_Status.bufferFree = 1;
  2527   0011C0  8624               	bsf	(_I2C_Status+35)^0,3,c
  2528   0011C2                     
  2529                           ; BSR set to: 0
  2530                           ;mcc_generated_files/i2c_master.c: 191:         I2C_Status.callbackTable[I2C_DATA_COMPLE
      +                          TE]=I2C_CallbackReturnStop;
  2531   0011C2  0EE6               	movlw	low _I2C_CallbackReturnStop
  2532   0011C4  6E01               	movwf	_I2C_Status^0,c
  2533   0011C6  0E1B               	movlw	high _I2C_CallbackReturnStop
  2534   0011C8  6E02               	movwf	(_I2C_Status+1)^0,c
  2535   0011CA                     
  2536                           ; BSR set to: 0
  2537                           ;mcc_generated_files/i2c_master.c: 192:         I2C_Status.callbackPayload[I2C_DATA_COMP
      +                          LETE] = ((void*)0);
  2538   0011CA  0E00               	movlw	0
  2539   0011CC  6E0D               	movwf	(_I2C_Status+12)^0,c
  2540   0011CE  0E00               	movlw	0
  2541   0011D0  6E0E               	movwf	(_I2C_Status+13)^0,c
  2542   0011D2                     
  2543                           ; BSR set to: 0
  2544                           ;mcc_generated_files/i2c_master.c: 193:         I2C_Status.callbackTable[I2C_WRITE_COLLI
      +                          SION]=I2C_CallbackReturnStop;
  2545   0011D2  0EE6               	movlw	low _I2C_CallbackReturnStop
  2546   0011D4  6E03               	movwf	(_I2C_Status+2)^0,c
  2547   0011D6  0E1B               	movlw	high _I2C_CallbackReturnStop
  2548   0011D8  6E04               	movwf	(_I2C_Status+3)^0,c
  2549   0011DA                     
  2550                           ; BSR set to: 0
  2551                           ;mcc_generated_files/i2c_master.c: 194:         I2C_Status.callbackPayload[I2C_WRITE_COL
      +                          LISION] = ((void*)0);
  2552   0011DA  0E00               	movlw	0
  2553   0011DC  6E0F               	movwf	(_I2C_Status+14)^0,c
  2554   0011DE  0E00               	movlw	0
  2555   0011E0  6E10               	movwf	(_I2C_Status+15)^0,c
  2556   0011E2                     
  2557                           ; BSR set to: 0
  2558                           ;mcc_generated_files/i2c_master.c: 195:         I2C_Status.callbackTable[I2C_ADDR_NACK]=
      +                          I2C_CallbackReturnStop;
  2559   0011E2  0EE6               	movlw	low _I2C_CallbackReturnStop
  2560   0011E4  6E05               	movwf	(_I2C_Status+4)^0,c
  2561   0011E6  0E1B               	movlw	high _I2C_CallbackReturnStop
  2562   0011E8  6E06               	movwf	(_I2C_Status+5)^0,c
  2563   0011EA                     
  2564                           ; BSR set to: 0
  2565                           ;mcc_generated_files/i2c_master.c: 196:         I2C_Status.callbackPayload[I2C_ADDR_NACK
      +                          ] = ((void*)0);
  2566   0011EA  0E00               	movlw	0
  2567   0011EC  6E11               	movwf	(_I2C_Status+16)^0,c
  2568   0011EE  0E00               	movlw	0
  2569   0011F0  6E12               	movwf	(_I2C_Status+17)^0,c
  2570   0011F2                     
  2571                           ; BSR set to: 0
  2572                           ;mcc_generated_files/i2c_master.c: 197:         I2C_Status.callbackTable[I2C_DATA_NACK]=
      +                          I2C_CallbackReturnStop;
  2573   0011F2  0EE6               	movlw	low _I2C_CallbackReturnStop
  2574   0011F4  6E07               	movwf	(_I2C_Status+6)^0,c
  2575   0011F6  0E1B               	movlw	high _I2C_CallbackReturnStop
  2576   0011F8  6E08               	movwf	(_I2C_Status+7)^0,c
  2577   0011FA                     
  2578                           ; BSR set to: 0
  2579                           ;mcc_generated_files/i2c_master.c: 198:         I2C_Status.callbackPayload[I2C_DATA_NACK
      +                          ] = ((void*)0);
  2580   0011FA  0E00               	movlw	0
  2581   0011FC  6E13               	movwf	(_I2C_Status+18)^0,c
  2582   0011FE  0E00               	movlw	0
  2583   001200  6E14               	movwf	(_I2C_Status+19)^0,c
  2584   001202                     
  2585                           ; BSR set to: 0
  2586                           ;mcc_generated_files/i2c_master.c: 199:         I2C_Status.callbackTable[I2C_TIMEOUT]=I2
      +                          C_CallbackReturnReset;
  2587   001202  0EE2               	movlw	low _I2C_CallbackReturnReset
  2588   001204  6E09               	movwf	(_I2C_Status+8)^0,c
  2589   001206  0E1B               	movlw	high _I2C_CallbackReturnReset
  2590   001208  6E0A               	movwf	(_I2C_Status+9)^0,c
  2591   00120A                     
  2592                           ; BSR set to: 0
  2593                           ;mcc_generated_files/i2c_master.c: 200:         I2C_Status.callbackPayload[I2C_TIMEOUT] 
      +                          = ((void*)0);
  2594   00120A  0E00               	movlw	0
  2595   00120C  6E15               	movwf	(_I2C_Status+20)^0,c
  2596   00120E  0E00               	movlw	0
  2597   001210  6E16               	movwf	(_I2C_Status+21)^0,c
  2598   001212                     
  2599                           ; BSR set to: 0
  2600                           ;mcc_generated_files/i2c_master.c: 202:         I2C_SetInterruptHandler(I2C_MasterIsr);
  2601   001212  0EAC               	movlw	low _I2C_MasterIsr
  2602   001214  6F78               	movwf	I2C_SetInterruptHandler@InterruptHandler& (0+255),b
  2603   001216  0E1B               	movlw	high _I2C_MasterIsr
  2604   001218  6F79               	movwf	(I2C_SetInterruptHandler@InterruptHandler+1)& (0+255),b
  2605   00121A  EC9A  F00D         	call	_I2C_SetInterruptHandler	;wreg free
  2606   00121E                     
  2607                           ;mcc_generated_files/i2c_master.c: 203:         I2C_MasterClearIrq();
  2608   00121E  ECE7  F00D         	call	_I2C_MasterClearIrq	;wreg free
  2609   001222                     
  2610                           ;mcc_generated_files/i2c_master.c: 204:         I2C_MasterOpen();
  2611   001222  ECE4  F00C         	call	_I2C_MasterOpen	;wreg free
  2612   001226                     
  2613                           ;mcc_generated_files/i2c_master.c: 205:         I2C_MasterEnableIrq();
  2614   001226  ECDF  F00D         	call	_I2C_MasterEnableIrq	;wreg free
  2615   00122A                     
  2616                           ;mcc_generated_files/i2c_master.c: 206:         returnValue = I2C_NOERR;
  2617   00122A  0E00               	movlw	0
  2618   00122C  0100               	movlb	0	; () banked
  2619   00122E  6F7B               	movwf	I2C_Open@returnValue& (0+255),b
  2620   001230                     l3241:
  2621                           
  2622                           ; BSR set to: 0
  2623                           ;mcc_generated_files/i2c_master.c: 208:     return returnValue;
  2624   001230  517B               	movf	I2C_Open@returnValue& (0+255),w,b
  2625   001232                     
  2626                           ; BSR set to: 0
  2627   001232  0012               	return		;funcret
  2628   001234                     __end_of_I2C_Open:
  2629                           	callstack 0
  2630                           
  2631 ;; *************** function _I2C_SetInterruptHandler *****************
  2632 ;; Defined at:
  2633 ;;		line 299 in file "mcc_generated_files/i2c_master.c"
  2634 ;; Parameters:    Size  Location     Type
  2635 ;;  InterruptHan    2    0[BANK0 ] PTR FTN()void 
  2636 ;;		 -> I2C_MasterIsr(1), 
  2637 ;; Auto vars:     Size  Location     Type
  2638 ;;		None
  2639 ;; Return value:  Size  Location     Type
  2640 ;;                  1    wreg      void 
  2641 ;; Registers used:
  2642 ;;		wreg, status,2, status,0
  2643 ;; Tracked objects:
  2644 ;;		On entry : 0/0
  2645 ;;		On exit  : 0/0
  2646 ;;		Unchanged: 0/0
  2647 ;; Data sizes:     COMRAM   BANK0   BANK1   BANK2   BANK3   BANK4   BANK5   BANK6   BANK7   BANK8   BANK9  BANK10  BANK1
      +1  BANK12  BANK13  BANK14  BANK15
  2648 ;;      Params:         0       2       0       0       0       0       0       0       0       0       0       0       
      +0       0       0       0       0
  2649 ;;      Locals:         0       0       0       0       0       0       0       0       0       0       0       0       
      +0       0       0       0       0
  2650 ;;      Temps:          0       0       0       0       0       0       0       0       0       0       0       0       
      +0       0       0       0       0
  2651 ;;      Totals:         0       2       0       0       0       0       0       0       0       0       0       0       
      +0       0       0       0       0
  2652 ;;Total ram usage:        2 bytes
  2653 ;; Hardware stack levels used: 1
  2654 ;; Hardware stack levels required when called: 7
  2655 ;; This function calls:
  2656 ;;		Nothing
  2657 ;; This function is called by:
  2658 ;;		_I2C_Open
  2659 ;; This function uses a non-reentrant model
  2660 ;;
  2661                           
  2662                           	psect	text25
  2663   001B34                     __ptext25:
  2664                           	callstack 0
  2665   001B34                     _I2C_SetInterruptHandler:
  2666                           	callstack 20
  2667   001B34                     
  2668                           ;mcc_generated_files/i2c_master.c: 299: void I2C_SetInterruptHandler(void (* InterruptHa
      +                          ndler)(void));mcc_generated_files/i2c_master.c: 300: {;mcc_generated_files/i2c_master.c:
      +                           301:     MSSP_InterruptHandler = InterruptHandler;
  2669   001B34  C078  F02B         	movff	I2C_SetInterruptHandler@InterruptHandler,_MSSP_InterruptHandler
  2670   001B38  C079  F02C         	movff	I2C_SetInterruptHandler@InterruptHandler+1,_MSSP_InterruptHandler+1
  2671   001B3C  0012               	return		;funcret
  2672   001B3E                     __end_of_I2C_SetInterruptHandler:
  2673                           	callstack 0
  2674                           
  2675 ;; *************** function _I2C_MasterOpen *****************
  2676 ;; Defined at:
  2677 ;;		line 544 in file "mcc_generated_files/i2c_master.c"
  2678 ;; Parameters:    Size  Location     Type
  2679 ;;		None
  2680 ;; Auto vars:     Size  Location     Type
  2681 ;;		None
  2682 ;; Return value:  Size  Location     Type
  2683 ;;                  1    wreg      _Bool 
  2684 ;; Registers used:
  2685 ;;		wreg, status,2
  2686 ;; Tracked objects:
  2687 ;;		On entry : 0/0
  2688 ;;		On exit  : 0/0
  2689 ;;		Unchanged: 0/0
  2690 ;; Data sizes:     COMRAM   BANK0   BANK1   BANK2   BANK3   BANK4   BANK5   BANK6   BANK7   BANK8   BANK9  BANK10  BANK1
      +1  BANK12  BANK13  BANK14  BANK15
  2691 ;;      Params:         0       0       0       0       0       0       0       0       0       0       0       0       
      +0       0       0       0       0
  2692 ;;      Locals:         0       0       0       0       0       0       0       0       0       0       0       0       
      +0       0       0       0       0
  2693 ;;      Temps:          0       0       0       0       0       0       0       0       0       0       0       0       
      +0       0       0       0       0
  2694 ;;      Totals:         0       0       0       0       0       0       0       0       0       0       0       0       
      +0       0       0       0       0
  2695 ;;Total ram usage:        0 bytes
  2696 ;; Hardware stack levels used: 1
  2697 ;; Hardware stack levels required when called: 7
  2698 ;; This function calls:
  2699 ;;		Nothing
  2700 ;; This function is called by:
  2701 ;;		_I2C_Open
  2702 ;; This function uses a non-reentrant model
  2703 ;;
  2704                           
  2705                           	psect	text26
  2706   0019C8                     __ptext26:
  2707                           	callstack 0
  2708   0019C8                     _I2C_MasterOpen:
  2709                           	callstack 20
  2710   0019C8                     
  2711                           ;mcc_generated_files/i2c_master.c: 546:     if(!SSPCON1bits.SSPEN)
  2712   0019C8  BAC6               	btfsc	198,5,c	;volatile
  2713   0019CA  EFE9  F00C         	goto	u1101
  2714   0019CE  EFEB  F00C         	goto	u1100
  2715   0019D2                     u1101:
  2716   0019D2  EFF4  F00C         	goto	l404
  2717   0019D6                     u1100:
  2718   0019D6                     
  2719                           ;mcc_generated_files/i2c_master.c: 547:     {;mcc_generated_files/i2c_master.c: 548:    
      +                               SSPSTAT = 0x00;
  2720   0019D6  0E00               	movlw	0
  2721   0019D8  6EC7               	movwf	199,c	;volatile
  2722                           
  2723                           ;mcc_generated_files/i2c_master.c: 549:         SSPCON1 = 0x08;
  2724   0019DA  0E08               	movlw	8
  2725   0019DC  6EC6               	movwf	198,c	;volatile
  2726                           
  2727                           ;mcc_generated_files/i2c_master.c: 550:         SSPCON2 = 0x00;
  2728   0019DE  0E00               	movlw	0
  2729   0019E0  6EC5               	movwf	197,c	;volatile
  2730                           
  2731                           ;mcc_generated_files/i2c_master.c: 551:         SSPADD = 0x03;
  2732   0019E2  0E03               	movlw	3
  2733   0019E4  6EC8               	movwf	200,c	;volatile
  2734   0019E6                     
  2735                           ;mcc_generated_files/i2c_master.c: 552:         SSPCON1bits.SSPEN = 1;
  2736   0019E6  8AC6               	bsf	198,5,c	;volatile
  2737   0019E8                     l404:
  2738   0019E8  0012               	return		;funcret
  2739   0019EA                     __end_of_I2C_MasterOpen:
  2740                           	callstack 0
  2741                           
  2742 ;; *************** function _I2C_MasterEnableIrq *****************
  2743 ;; Defined at:
  2744 ;;		line 627 in file "mcc_generated_files/i2c_master.c"
  2745 ;; Parameters:    Size  Location     Type
  2746 ;;		None
  2747 ;; Auto vars:     Size  Location     Type
  2748 ;;		None
  2749 ;; Return value:  Size  Location     Type
  2750 ;;                  1    wreg      void 
  2751 ;; Registers used:
  2752 ;;		None
  2753 ;; Tracked objects:
  2754 ;;		On entry : 0/0
  2755 ;;		On exit  : 0/0
  2756 ;;		Unchanged: 0/0
  2757 ;; Data sizes:     COMRAM   BANK0   BANK1   BANK2   BANK3   BANK4   BANK5   BANK6   BANK7   BANK8   BANK9  BANK10  BANK1
      +1  BANK12  BANK13  BANK14  BANK15
  2758 ;;      Params:         0       0       0       0       0       0       0       0       0       0       0       0       
      +0       0       0       0       0
  2759 ;;      Locals:         0       0       0       0       0       0       0       0       0       0       0       0       
      +0       0       0       0       0
  2760 ;;      Temps:          0       0       0       0       0       0       0       0       0       0       0       0       
      +0       0       0       0       0
  2761 ;;      Totals:         0       0       0       0       0       0       0       0       0       0       0       0       
      +0       0       0       0       0
  2762 ;;Total ram usage:        0 bytes
  2763 ;; Hardware stack levels used: 1
  2764 ;; Hardware stack levels required when called: 7
  2765 ;; This function calls:
  2766 ;;		Nothing
  2767 ;; This function is called by:
  2768 ;;		_I2C_Open
  2769 ;;		_I2C_SetTimeOut
  2770 ;; This function uses a non-reentrant model
  2771 ;;
  2772                           
  2773                           	psect	text27
  2774   001BBE                     __ptext27:
  2775                           	callstack 0
  2776   001BBE                     _I2C_MasterEnableIrq:
  2777                           	callstack 20
  2778   001BBE                     
  2779                           ;mcc_generated_files/i2c_master.c: 629:     PIE1bits.SSPIE = 1;
  2780   001BBE  869D               	bsf	157,3,c	;volatile
  2781   001BC0  0012               	return		;funcret
  2782   001BC2                     __end_of_I2C_MasterEnableIrq:
  2783                           	callstack 0
  2784                           
  2785 ;; *************** function _I2C_MasterWrite *****************
  2786 ;; Defined at:
  2787 ;;		line 252 in file "mcc_generated_files/i2c_master.c"
  2788 ;; Parameters:    Size  Location     Type
  2789 ;;		None
  2790 ;; Auto vars:     Size  Location     Type
  2791 ;;		None
  2792 ;; Return value:  Size  Location     Type
  2793 ;;                  1    wreg      enum E358
  2794 ;; Registers used:
  2795 ;;		wreg, status,2, cstack
  2796 ;; Tracked objects:
  2797 ;;		On entry : 0/0
  2798 ;;		On exit  : 0/0
  2799 ;;		Unchanged: 0/0
  2800 ;; Data sizes:     COMRAM   BANK0   BANK1   BANK2   BANK3   BANK4   BANK5   BANK6   BANK7   BANK8   BANK9  BANK10  BANK1
      +1  BANK12  BANK13  BANK14  BANK15
  2801 ;;      Params:         0       0       0       0       0       0       0       0       0       0       0       0       
      +0       0       0       0       0
  2802 ;;      Locals:         0       0       0       0       0       0       0       0       0       0       0       0       
      +0       0       0       0       0
  2803 ;;      Temps:          0       0       0       0       0       0       0       0       0       0       0       0       
      +0       0       0       0       0
  2804 ;;      Totals:         0       0       0       0       0       0       0       0       0       0       0       0       
      +0       0       0       0       0
  2805 ;;Total ram usage:        0 bytes
  2806 ;; Hardware stack levels used: 1
  2807 ;; Hardware stack levels required when called: 9
  2808 ;; This function calls:
  2809 ;;		_I2C_MasterOperation
  2810 ;; This function is called by:
  2811 ;;		_I2C_Read1ByteRegister
  2812 ;;		_I2C_Read2ByteRegister
  2813 ;;		_I2C_Write1ByteRegister
  2814 ;;		_I2C_Write2ByteRegister
  2815 ;;		_I2C_WriteNBytes
  2816 ;;		_I2C_ReadDataBlock
  2817 ;; This function uses a non-reentrant model
  2818 ;;
  2819                           
  2820                           	psect	text28
  2821   001B64                     __ptext28:
  2822                           	callstack 0
  2823   001B64                     _I2C_MasterWrite:
  2824                           	callstack 19
  2825   001B64                     
  2826                           ;mcc_generated_files/i2c_master.c: 254:     return I2C_MasterOperation(0);;	Return value
      +                           of _I2C_MasterWrite is never used
  2827   001B64  0E00               	movlw	0
  2828   001B66  ECF8  F00B         	call	_I2C_MasterOperation
  2829   001B6A  0012               	return		;funcret
  2830   001B6C                     __end_of_I2C_MasterWrite:
  2831                           	callstack 0
  2832                           
  2833 ;; *************** function _I2C_MasterOperation *****************
  2834 ;; Defined at:
  2835 ;;		line 226 in file "mcc_generated_files/i2c_master.c"
  2836 ;; Parameters:    Size  Location     Type
  2837 ;;  read            1    wreg     _Bool 
  2838 ;; Auto vars:     Size  Location     Type
  2839 ;;  read            1    0[BANK0 ] _Bool 
  2840 ;;  returnValue     1    1[BANK0 ] enum E358
  2841 ;; Return value:  Size  Location     Type
  2842 ;;                  1    wreg      enum E358
  2843 ;; Registers used:
  2844 ;;		wreg, status,2, cstack
  2845 ;; Tracked objects:
  2846 ;;		On entry : 0/0
  2847 ;;		On exit  : 0/0
  2848 ;;		Unchanged: 0/0
  2849 ;; Data sizes:     COMRAM   BANK0   BANK1   BANK2   BANK3   BANK4   BANK5   BANK6   BANK7   BANK8   BANK9  BANK10  BANK1
      +1  BANK12  BANK13  BANK14  BANK15
  2850 ;;      Params:         0       0       0       0       0       0       0       0       0       0       0       0       
      +0       0       0       0       0
  2851 ;;      Locals:         0       2       0       0       0       0       0       0       0       0       0       0       
      +0       0       0       0       0
  2852 ;;      Temps:          0       0       0       0       0       0       0       0       0       0       0       0       
      +0       0       0       0       0
  2853 ;;      Totals:         0       2       0       0       0       0       0       0       0       0       0       0       
      +0       0       0       0       0
  2854 ;;Total ram usage:        2 bytes
  2855 ;; Hardware stack levels used: 1
  2856 ;; Hardware stack levels required when called: 8
  2857 ;; This function calls:
  2858 ;;		_I2C_MasterStart
  2859 ;; This function is called by:
  2860 ;;		_I2C_MasterWrite
  2861 ;;		_I2C_MasterRead
  2862 ;; This function uses a non-reentrant model
  2863 ;;
  2864                           
  2865                           	psect	text29
  2866   0017F0                     __ptext29:
  2867                           	callstack 0
  2868   0017F0                     _I2C_MasterOperation:
  2869                           	callstack 19
  2870                           
  2871                           ;incstack = 0
  2872                           ;I2C_MasterOperation@read stored from wreg
  2873   0017F0  0100               	movlb	0	; () banked
  2874   0017F2  6F78               	movwf	I2C_MasterOperation@read& (0+255),b
  2875   0017F4                     
  2876                           ;mcc_generated_files/i2c_master.c: 226: i2c_error_t I2C_MasterOperation(_Bool read);mcc_
      +                          generated_files/i2c_master.c: 227: {;mcc_generated_files/i2c_master.c: 228:     i2c_erro
      +                          r_t returnValue = I2C_BUSY;
  2877   0017F4  0E01               	movlw	1
  2878   0017F6  0100               	movlb	0	; () banked
  2879   0017F8  6F79               	movwf	I2C_MasterOperation@returnValue& (0+255),b
  2880   0017FA                     
  2881                           ; BSR set to: 0
  2882                           ;mcc_generated_files/i2c_master.c: 229:     if(!I2C_Status.busy)
  2883   0017FA  B224               	btfsc	(_I2C_Status+35)^0,1,c
  2884   0017FC  EF02  F00C         	goto	u1111
  2885   001800  EF04  F00C         	goto	u1110
  2886   001804                     u1111:
  2887   001804  EF17  F00C         	goto	l3127
  2888   001808                     u1110:
  2889   001808                     
  2890                           ; BSR set to: 0
  2891                           ;mcc_generated_files/i2c_master.c: 230:     {;mcc_generated_files/i2c_master.c: 231:    
      +                               I2C_Status.busy = 1;
  2892   001808  8224               	bsf	(_I2C_Status+35)^0,1,c
  2893   00180A                     
  2894                           ; BSR set to: 0
  2895                           ;mcc_generated_files/i2c_master.c: 232:         returnValue = I2C_NOERR;
  2896   00180A  0E00               	movlw	0
  2897   00180C  6F79               	movwf	I2C_MasterOperation@returnValue& (0+255),b
  2898   00180E                     
  2899                           ; BSR set to: 0
  2900                           ;mcc_generated_files/i2c_master.c: 234:         if(read)
  2901   00180E  5178               	movf	I2C_MasterOperation@read& (0+255),w,b
  2902   001810  B4D8               	btfsc	status,2,c
  2903   001812  EF0D  F00C         	goto	u1121
  2904   001816  EF0F  F00C         	goto	u1120
  2905   00181A                     u1121:
  2906   00181A  EF13  F00C         	goto	l3123
  2907   00181E                     u1120:
  2908   00181E                     
  2909                           ; BSR set to: 0
  2910                           ;mcc_generated_files/i2c_master.c: 235:         {;mcc_generated_files/i2c_master.c: 236:
      +                                       I2C_Status.state = I2C_SEND_ADR_READ;
  2911   00181E  0E01               	movlw	1
  2912   001820  6E22               	movwf	(_I2C_Status+33)^0,c
  2913                           
  2914                           ;mcc_generated_files/i2c_master.c: 237:         }
  2915   001822  EF15  F00C         	goto	l3125
  2916   001826                     l3123:
  2917                           
  2918                           ; BSR set to: 0
  2919                           ;mcc_generated_files/i2c_master.c: 239:         {;mcc_generated_files/i2c_master.c: 240:
      +                                       I2C_Status.state = I2C_SEND_ADR_WRITE;
  2920   001826  0E02               	movlw	2
  2921   001828  6E22               	movwf	(_I2C_Status+33)^0,c
  2922   00182A                     l3125:
  2923                           
  2924                           ; BSR set to: 0
  2925                           ;mcc_generated_files/i2c_master.c: 242:         I2C_MasterStart();
  2926   00182A  ECE1  F00D         	call	_I2C_MasterStart	;wreg free
  2927   00182E                     l3127:
  2928                           
  2929                           ;mcc_generated_files/i2c_master.c: 244:     return returnValue;
  2930   00182E  0100               	movlb	0	; () banked
  2931   001830  5179               	movf	I2C_MasterOperation@returnValue& (0+255),w,b
  2932   001832                     
  2933                           ; BSR set to: 0
  2934   001832  0012               	return		;funcret
  2935   001834                     __end_of_I2C_MasterOperation:
  2936                           	callstack 0
  2937                           
  2938 ;; *************** function _I2C_MasterStart *****************
  2939 ;; Defined at:
  2940 ;;		line 589 in file "mcc_generated_files/i2c_master.c"
  2941 ;; Parameters:    Size  Location     Type
  2942 ;;		None
  2943 ;; Auto vars:     Size  Location     Type
  2944 ;;		None
  2945 ;; Return value:  Size  Location     Type
  2946 ;;                  1    wreg      void 
  2947 ;; Registers used:
  2948 ;;		None
  2949 ;; Tracked objects:
  2950 ;;		On entry : 0/0
  2951 ;;		On exit  : 0/0
  2952 ;;		Unchanged: 0/0
  2953 ;; Data sizes:     COMRAM   BANK0   BANK1   BANK2   BANK3   BANK4   BANK5   BANK6   BANK7   BANK8   BANK9  BANK10  BANK1
      +1  BANK12  BANK13  BANK14  BANK15
  2954 ;;      Params:         0       0       0       0       0       0       0       0       0       0       0       0       
      +0       0       0       0       0
  2955 ;;      Locals:         0       0       0       0       0       0       0       0       0       0       0       0       
      +0       0       0       0       0
  2956 ;;      Temps:          0       0       0       0       0       0       0       0       0       0       0       0       
      +0       0       0       0       0
  2957 ;;      Totals:         0       0       0       0       0       0       0       0       0       0       0       0       
      +0       0       0       0       0
  2958 ;;Total ram usage:        0 bytes
  2959 ;; Hardware stack levels used: 1
  2960 ;; Hardware stack levels required when called: 7
  2961 ;; This function calls:
  2962 ;;		Nothing
  2963 ;; This function is called by:
  2964 ;;		_I2C_MasterOperation
  2965 ;; This function uses a non-reentrant model
  2966 ;;
  2967                           
  2968                           	psect	text30
  2969   001BC2                     __ptext30:
  2970                           	callstack 0
  2971   001BC2                     _I2C_MasterStart:
  2972                           	callstack 19
  2973   001BC2                     
  2974                           ;mcc_generated_files/i2c_master.c: 591:     SSPCON2bits.SEN = 1;
  2975   001BC2  80C5               	bsf	197,0,c	;volatile
  2976   001BC4  0012               	return		;funcret
  2977   001BC6                     __end_of_I2C_MasterStart:
  2978                           	callstack 0
  2979                           
  2980 ;; *************** function _I2C_Close *****************
  2981 ;; Defined at:
  2982 ;;		line 211 in file "mcc_generated_files/i2c_master.c"
  2983 ;; Parameters:    Size  Location     Type
  2984 ;;		None
  2985 ;; Auto vars:     Size  Location     Type
  2986 ;;  returnValue     1    0[BANK0 ] enum E358
  2987 ;; Return value:  Size  Location     Type
  2988 ;;                  1    wreg      enum E358
  2989 ;; Registers used:
  2990 ;;		wreg, status,2, cstack
  2991 ;; Tracked objects:
  2992 ;;		On entry : 0/0
  2993 ;;		On exit  : 0/0
  2994 ;;		Unchanged: 0/0
  2995 ;; Data sizes:     COMRAM   BANK0   BANK1   BANK2   BANK3   BANK4   BANK5   BANK6   BANK7   BANK8   BANK9  BANK10  BANK1
      +1  BANK12  BANK13  BANK14  BANK15
  2996 ;;      Params:         0       0       0       0       0       0       0       0       0       0       0       0       
      +0       0       0       0       0
  2997 ;;      Locals:         0       1       0       0       0       0       0       0       0       0       0       0       
      +0       0       0       0       0
  2998 ;;      Temps:          0       0       0       0       0       0       0       0       0       0       0       0       
      +0       0       0       0       0
  2999 ;;      Totals:         0       1       0       0       0       0       0       0       0       0       0       0       
      +0       0       0       0       0
  3000 ;;Total ram usage:        1 bytes
  3001 ;; Hardware stack levels used: 1
  3002 ;; Hardware stack levels required when called: 8
  3003 ;; This function calls:
  3004 ;;		_I2C_MasterClearIrq
  3005 ;;		_I2C_MasterClose
  3006 ;;		_I2C_MasterDisableIrq
  3007 ;; This function is called by:
  3008 ;;		_I2C_Read1ByteRegister
  3009 ;;		_I2C_Read2ByteRegister
  3010 ;;		_I2C_Write1ByteRegister
  3011 ;;		_I2C_Write2ByteRegister
  3012 ;;		_I2C_WriteNBytes
  3013 ;;		_I2C_ReadNBytes
  3014 ;;		_I2C_ReadDataBlock
  3015 ;; This function uses a non-reentrant model
  3016 ;;
  3017                           
  3018                           	psect	text31
  3019   0018A6                     __ptext31:
  3020                           	callstack 0
  3021   0018A6                     _I2C_Close:
  3022                           	callstack 20
  3023   0018A6                     
  3024                           ;mcc_generated_files/i2c_master.c: 213:     i2c_error_t returnValue = I2C_BUSY;
  3025   0018A6  0E01               	movlw	1
  3026   0018A8  0100               	movlb	0	; () banked
  3027   0018AA  6F78               	movwf	I2C_Close@returnValue& (0+255),b
  3028   0018AC                     
  3029                           ; BSR set to: 0
  3030                           ;mcc_generated_files/i2c_master.c: 214:     if(!I2C_Status.busy)
  3031   0018AC  B224               	btfsc	(_I2C_Status+35)^0,1,c
  3032   0018AE  EF5B  F00C         	goto	u1171
  3033   0018B2  EF5D  F00C         	goto	u1170
  3034   0018B6                     u1171:
  3035   0018B6  EF67  F00C         	goto	l3271
  3036   0018BA                     u1170:
  3037   0018BA                     
  3038                           ; BSR set to: 0
  3039                           ;mcc_generated_files/i2c_master.c: 215:     {;mcc_generated_files/i2c_master.c: 216:    
      +                               I2C_Status.inUse = 0;
  3040   0018BA  9424               	bcf	(_I2C_Status+35)^0,2,c
  3041                           
  3042                           ;mcc_generated_files/i2c_master.c: 217:         I2C_Status.address = 0xff;
  3043   0018BC  681D               	setf	(_I2C_Status+28)^0,c
  3044   0018BE                     
  3045                           ; BSR set to: 0
  3046                           ;mcc_generated_files/i2c_master.c: 218:         I2C_MasterClearIrq();
  3047   0018BE  ECE7  F00D         	call	_I2C_MasterClearIrq	;wreg free
  3048                           
  3049                           ;mcc_generated_files/i2c_master.c: 219:         I2C_MasterDisableIrq();
  3050   0018C2  ECE3  F00D         	call	_I2C_MasterDisableIrq	;wreg free
  3051                           
  3052                           ;mcc_generated_files/i2c_master.c: 220:         I2C_MasterClose();
  3053   0018C6  ECE5  F00D         	call	_I2C_MasterClose	;wreg free
  3054   0018CA                     
  3055                           ;mcc_generated_files/i2c_master.c: 221:         returnValue = I2C_Status.error;
  3056   0018CA  C023  F078         	movff	_I2C_Status+34,I2C_Close@returnValue
  3057   0018CE                     l3271:
  3058                           
  3059                           ;mcc_generated_files/i2c_master.c: 223:     return returnValue;
  3060   0018CE  0100               	movlb	0	; () banked
  3061   0018D0  5178               	movf	I2C_Close@returnValue& (0+255),w,b
  3062   0018D2                     
  3063                           ; BSR set to: 0
  3064   0018D2  0012               	return		;funcret
  3065   0018D4                     __end_of_I2C_Close:
  3066                           	callstack 0
  3067                           
  3068 ;; *************** function _I2C_MasterDisableIrq *****************
  3069 ;; Defined at:
  3070 ;;		line 637 in file "mcc_generated_files/i2c_master.c"
  3071 ;; Parameters:    Size  Location     Type
  3072 ;;		None
  3073 ;; Auto vars:     Size  Location     Type
  3074 ;;		None
  3075 ;; Return value:  Size  Location     Type
  3076 ;;                  1    wreg      void 
  3077 ;; Registers used:
  3078 ;;		None
  3079 ;; Tracked objects:
  3080 ;;		On entry : 0/0
  3081 ;;		On exit  : 0/0
  3082 ;;		Unchanged: 0/0
  3083 ;; Data sizes:     COMRAM   BANK0   BANK1   BANK2   BANK3   BANK4   BANK5   BANK6   BANK7   BANK8   BANK9  BANK10  BANK1
      +1  BANK12  BANK13  BANK14  BANK15
  3084 ;;      Params:         0       0       0       0       0       0       0       0       0       0       0       0       
      +0       0       0       0       0
  3085 ;;      Locals:         0       0       0       0       0       0       0       0       0       0       0       0       
      +0       0       0       0       0
  3086 ;;      Temps:          0       0       0       0       0       0       0       0       0       0       0       0       
      +0       0       0       0       0
  3087 ;;      Totals:         0       0       0       0       0       0       0       0       0       0       0       0       
      +0       0       0       0       0
  3088 ;;Total ram usage:        0 bytes
  3089 ;; Hardware stack levels used: 1
  3090 ;; Hardware stack levels required when called: 7
  3091 ;; This function calls:
  3092 ;;		Nothing
  3093 ;; This function is called by:
  3094 ;;		_I2C_Close
  3095 ;;		_I2C_SetTimeOut
  3096 ;; This function uses a non-reentrant model
  3097 ;;
  3098                           
  3099                           	psect	text32
  3100   001BC6                     __ptext32:
  3101                           	callstack 0
  3102   001BC6                     _I2C_MasterDisableIrq:
  3103                           	callstack 20
  3104   001BC6                     
  3105                           ;mcc_generated_files/i2c_master.c: 639:     PIE1bits.SSPIE = 0;
  3106   001BC6  969D               	bcf	157,3,c	;volatile
  3107   001BC8  0012               	return		;funcret
  3108   001BCA                     __end_of_I2C_MasterDisableIrq:
  3109                           	callstack 0
  3110                           
  3111 ;; *************** function _I2C_MasterClose *****************
  3112 ;; Defined at:
  3113 ;;		line 558 in file "mcc_generated_files/i2c_master.c"
  3114 ;; Parameters:    Size  Location     Type
  3115 ;;		None
  3116 ;; Auto vars:     Size  Location     Type
  3117 ;;		None
  3118 ;; Return value:  Size  Location     Type
  3119 ;;                  1    wreg      void 
  3120 ;; Registers used:
  3121 ;;		None
  3122 ;; Tracked objects:
  3123 ;;		On entry : 0/0
  3124 ;;		On exit  : 0/0
  3125 ;;		Unchanged: 0/0
  3126 ;; Data sizes:     COMRAM   BANK0   BANK1   BANK2   BANK3   BANK4   BANK5   BANK6   BANK7   BANK8   BANK9  BANK10  BANK1
      +1  BANK12  BANK13  BANK14  BANK15
  3127 ;;      Params:         0       0       0       0       0       0       0       0       0       0       0       0       
      +0       0       0       0       0
  3128 ;;      Locals:         0       0       0       0       0       0       0       0       0       0       0       0       
      +0       0       0       0       0
  3129 ;;      Temps:          0       0       0       0       0       0       0       0       0       0       0       0       
      +0       0       0       0       0
  3130 ;;      Totals:         0       0       0       0       0       0       0       0       0       0       0       0       
      +0       0       0       0       0
  3131 ;;Total ram usage:        0 bytes
  3132 ;; Hardware stack levels used: 1
  3133 ;; Hardware stack levels required when called: 7
  3134 ;; This function calls:
  3135 ;;		Nothing
  3136 ;; This function is called by:
  3137 ;;		_I2C_Close
  3138 ;; This function uses a non-reentrant model
  3139 ;;
  3140                           
  3141                           	psect	text33
  3142   001BCA                     __ptext33:
  3143                           	callstack 0
  3144   001BCA                     _I2C_MasterClose:
  3145                           	callstack 20
  3146   001BCA                     
  3147                           ;mcc_generated_files/i2c_master.c: 561:     SSPCON1bits.SSPEN = 0;
  3148   001BCA  9AC6               	bcf	198,5,c	;volatile
  3149   001BCC  0012               	return		;funcret
  3150   001BCE                     __end_of_I2C_MasterClose:
  3151                           	callstack 0
  3152                           
  3153 ;; *************** function _I2C_MasterClearIrq *****************
  3154 ;; Defined at:
  3155 ;;		line 642 in file "mcc_generated_files/i2c_master.c"
  3156 ;; Parameters:    Size  Location     Type
  3157 ;;		None
  3158 ;; Auto vars:     Size  Location     Type
  3159 ;;		None
  3160 ;; Return value:  Size  Location     Type
  3161 ;;                  1    wreg      void 
  3162 ;; Registers used:
  3163 ;;		None
  3164 ;; Tracked objects:
  3165 ;;		On entry : 0/0
  3166 ;;		On exit  : 0/0
  3167 ;;		Unchanged: 0/0
  3168 ;; Data sizes:     COMRAM   BANK0   BANK1   BANK2   BANK3   BANK4   BANK5   BANK6   BANK7   BANK8   BANK9  BANK10  BANK1
      +1  BANK12  BANK13  BANK14  BANK15
  3169 ;;      Params:         0       0       0       0       0       0       0       0       0       0       0       0       
      +0       0       0       0       0
  3170 ;;      Locals:         0       0       0       0       0       0       0       0       0       0       0       0       
      +0       0       0       0       0
  3171 ;;      Temps:          0       0       0       0       0       0       0       0       0       0       0       0       
      +0       0       0       0       0
  3172 ;;      Totals:         0       0       0       0       0       0       0       0       0       0       0       0       
      +0       0       0       0       0
  3173 ;;Total ram usage:        0 bytes
  3174 ;; Hardware stack levels used: 1
  3175 ;; Hardware stack levels required when called: 7
  3176 ;; This function calls:
  3177 ;;		Nothing
  3178 ;; This function is called by:
  3179 ;;		_I2C_Open
  3180 ;;		_I2C_Close
  3181 ;; This function uses a non-reentrant model
  3182 ;;
  3183                           
  3184                           	psect	text34
  3185   001BCE                     __ptext34:
  3186                           	callstack 0
  3187   001BCE                     _I2C_MasterClearIrq:
  3188                           	callstack 20
  3189   001BCE                     
  3190                           ;mcc_generated_files/i2c_master.c: 644:     PIR1bits.SSPIF = 0;
  3191   001BCE  969E               	bcf	158,3,c	;volatile
  3192   001BD0  0012               	return		;funcret
  3193   001BD2                     __end_of_I2C_MasterClearIrq:
  3194                           	callstack 0
  3195                           
  3196 ;; *************** function _INTERRUPT_InterruptManagerHigh *****************
  3197 ;; Defined at:
  3198 ;;		line 68 in file "mcc_generated_files/interrupt_manager.c"
  3199 ;; Parameters:    Size  Location     Type
  3200 ;;		None
  3201 ;; Auto vars:     Size  Location     Type
  3202 ;;		None
  3203 ;; Return value:  Size  Location     Type
  3204 ;;                  1    wreg      void 
  3205 ;; Registers used:
  3206 ;;		wreg, fsr2l, fsr2h, status,2, status,0, pcl, pclath, pclatu, tosl, tblptrl, tblptrh, tblptru, prodl, prodh, cstack
  3207 ;; Tracked objects:
  3208 ;;		On entry : 0/0
  3209 ;;		On exit  : 0/0
  3210 ;;		Unchanged: 0/0
  3211 ;; Data sizes:     COMRAM   BANK0   BANK1   BANK2   BANK3   BANK4   BANK5   BANK6   BANK7   BANK8   BANK9  BANK10  BANK1
      +1  BANK12  BANK13  BANK14  BANK15
  3212 ;;      Params:         0       0       0       0       0       0       0       0       0       0       0       0       
      +0       0       0       0       0
  3213 ;;      Locals:         0       0       0       0       0       0       0       0       0       0       0       0       
      +0       0       0       0       0
  3214 ;;      Temps:         10       0       0       0       0       0       0       0       0       0       0       0       
      +0       0       0       0       0
  3215 ;;      Totals:        10       0       0       0       0       0       0       0       0       0       0       0       
      +0       0       0       0       0
  3216 ;;Total ram usage:       10 bytes
  3217 ;; Hardware stack levels used: 1
  3218 ;; Hardware stack levels required when called: 6
  3219 ;; This function calls:
  3220 ;;		NULL
  3221 ;;		_I2C_MasterIsr
  3222 ;; This function is called by:
  3223 ;;		Interrupt level 2
  3224 ;; This function uses a non-reentrant model
  3225 ;;
  3226                           
  3227                           	psect	intcode
  3228   000008                     __pintcode:
  3229                           	callstack 0
  3230   000008                     _INTERRUPT_InterruptManagerHigh:
  3231                           	callstack 19
  3232                           
  3233                           ;incstack = 0
  3234   000008  824C               	bsf	int$flags,1,c	;set compiler interrupt flag (level 2)
  3235   00000A  CFFA F042          	movff	pclath,??_INTERRUPT_InterruptManagerHigh
  3236   00000E  CFFB F043          	movff	pclatu,??_INTERRUPT_InterruptManagerHigh+1
  3237   000012  CFD9 F044          	movff	fsr2l,??_INTERRUPT_InterruptManagerHigh+2
  3238   000016  CFDA F045          	movff	fsr2h,??_INTERRUPT_InterruptManagerHigh+3
  3239   00001A  CFF3 F046          	movff	prodl,??_INTERRUPT_InterruptManagerHigh+4
  3240   00001E  CFF4 F047          	movff	prodh,??_INTERRUPT_InterruptManagerHigh+5
  3241   000022  CFF6 F048          	movff	tblptrl,??_INTERRUPT_InterruptManagerHigh+6
  3242   000026  CFF7 F049          	movff	tblptrh,??_INTERRUPT_InterruptManagerHigh+7
  3243   00002A  CFF8 F04A          	movff	tblptru,??_INTERRUPT_InterruptManagerHigh+8
  3244   00002E  CFF5 F04B          	movff	tablat,??_INTERRUPT_InterruptManagerHigh+9
  3245   000032                     
  3246                           ;mcc_generated_files/interrupt_manager.c: 71:     if(PIE2bits.BCLIE == 1 && PIR2bits.BCL
      +                          IF == 1)
  3247   000032  A6A0               	btfss	160,3,c	;volatile
  3248   000034  EF1E  F000         	goto	i2u148_41
  3249   000038  EF20  F000         	goto	i2u148_40
  3250   00003C                     i2u148_41:
  3251   00003C  EF35  F000         	goto	i2l590
  3252   000040                     i2u148_40:
  3253   000040  A6A1               	btfss	161,3,c	;volatile
  3254   000042  EF25  F000         	goto	i2u149_41
  3255   000046  EF27  F000         	goto	i2u149_40
  3256   00004A                     i2u149_41:
  3257   00004A  EF35  F000         	goto	i2l590
  3258   00004E                     i2u149_40:
  3259   00004E                     i2l3675:
  3260                           
  3261                           ;mcc_generated_files/interrupt_manager.c: 72:     {;mcc_generated_files/interrupt_manage
      +                          r.c: 73:         MSSP_InterruptHandler();
  3262   00004E  D802               	call	i2u150_48
  3263   000050  EF33  F000         	goto	i2u150_49
  3264   000054                     i2u150_48:
  3265   000054  0005               	push	
  3266   000056  6EFA               	movwf	pclath,c
  3267   000058  502B               	movf	_MSSP_InterruptHandler^0,w,c
  3268   00005A  6EFD               	movwf	tosl,c
  3269   00005C  502C               	movf	(_MSSP_InterruptHandler+1)^0,w,c
  3270   00005E  6EFE               	movwf	tosh,c
  3271   000060  6AFF               	clrf	tosu,c
  3272   000062  50FA               	movf	pclath,w,c
  3273   000064  0012               	return		;indir
  3274   000066                     i2u150_49:
  3275                           
  3276                           ;mcc_generated_files/interrupt_manager.c: 74:     }
  3277   000066  EF45  F000         	goto	i2l594
  3278   00006A                     i2l590:
  3279   00006A  A69D               	btfss	157,3,c	;volatile
  3280   00006C  EF3A  F000         	goto	i2u151_41
  3281   000070  EF3C  F000         	goto	i2u151_40
  3282   000074                     i2u151_41:
  3283   000074  EF45  F000         	goto	i2l594
  3284   000078                     i2u151_40:
  3285   000078  A69E               	btfss	158,3,c	;volatile
  3286   00007A  EF41  F000         	goto	i2u152_41
  3287   00007E  EF43  F000         	goto	i2u152_40
  3288   000082                     i2u152_41:
  3289   000082  EF45  F000         	goto	i2l594
  3290   000086                     i2u152_40:
  3291   000086  EF27  F000         	goto	i2l3675
  3292   00008A                     i2l594:
  3293   00008A  C04B  FFF5         	movff	??_INTERRUPT_InterruptManagerHigh+9,tablat
  3294   00008E  C04A  FFF8         	movff	??_INTERRUPT_InterruptManagerHigh+8,tblptru
  3295   000092  C049  FFF7         	movff	??_INTERRUPT_InterruptManagerHigh+7,tblptrh
  3296   000096  C048  FFF6         	movff	??_INTERRUPT_InterruptManagerHigh+6,tblptrl
  3297   00009A  C047  FFF4         	movff	??_INTERRUPT_InterruptManagerHigh+5,prodh
  3298   00009E  C046  FFF3         	movff	??_INTERRUPT_InterruptManagerHigh+4,prodl
  3299   0000A2  C045  FFDA         	movff	??_INTERRUPT_InterruptManagerHigh+3,fsr2h
  3300   0000A6  C044  FFD9         	movff	??_INTERRUPT_InterruptManagerHigh+2,fsr2l
  3301   0000AA  C043  FFFB         	movff	??_INTERRUPT_InterruptManagerHigh+1,pclatu
  3302   0000AE  C042  FFFA         	movff	??_INTERRUPT_InterruptManagerHigh,pclath
  3303   0000B2  924C               	bcf	int$flags,1,c	;clear compiler interrupt flag (level 2)
  3304   0000B4  0011               	retfie		f
  3305   0000B6                     __end_of_INTERRUPT_InterruptManagerHigh:
  3306                           	callstack 0
  3307                           
  3308 ;; *************** function _I2C_MasterIsr *****************
  3309 ;; Defined at:
  3310 ;;		line 318 in file "mcc_generated_files/i2c_master.c"
  3311 ;; Parameters:    Size  Location     Type
  3312 ;;		None
  3313 ;; Auto vars:     Size  Location     Type
  3314 ;;		None
  3315 ;; Return value:  Size  Location     Type
  3316 ;;                  1    wreg      void 
  3317 ;; Registers used:
  3318 ;;		wreg, fsr2l, fsr2h, status,2, status,0, pcl, pclath, pclatu, tosl, tblptrl, tblptrh, tblptru, prodl, prodh, cstack
  3319 ;; Tracked objects:
  3320 ;;		On entry : 0/0
  3321 ;;		On exit  : 0/0
  3322 ;;		Unchanged: 0/0
  3323 ;; Data sizes:     COMRAM   BANK0   BANK1   BANK2   BANK3   BANK4   BANK5   BANK6   BANK7   BANK8   BANK9  BANK10  BANK1
      +1  BANK12  BANK13  BANK14  BANK15
  3324 ;;      Params:         0       0       0       0       0       0       0       0       0       0       0       0       
      +0       0       0       0       0
  3325 ;;      Locals:         0       0       0       0       0       0       0       0       0       0       0       0       
      +0       0       0       0       0
  3326 ;;      Temps:          0       0       0       0       0       0       0       0       0       0       0       0       
      +0       0       0       0       0
  3327 ;;      Totals:         0       0       0       0       0       0       0       0       0       0       0       0       
      +0       0       0       0       0
  3328 ;;Total ram usage:        0 bytes
  3329 ;; Hardware stack levels used: 1
  3330 ;; Hardware stack levels required when called: 5
  3331 ;; This function calls:
  3332 ;;		_I2C_MasterFsm
  3333 ;; This function is called by:
  3334 ;;		_I2C_Open
  3335 ;;		_INTERRUPT_InterruptManagerHigh
  3336 ;; This function uses a non-reentrant model
  3337 ;;
  3338                           
  3339                           	psect	text36
  3340   001BAC                     __ptext36:
  3341                           	callstack 0
  3342   001BAC                     _I2C_MasterIsr:
  3343                           	callstack 19
  3344   001BAC                     
  3345                           ;mcc_generated_files/i2c_master.c: 320:     I2C_MasterFsm();
  3346   001BAC  EC0C  F00B         	call	_I2C_MasterFsm	;wreg free
  3347   001BB0  0012               	return		;funcret
  3348   001BB2                     __end_of_I2C_MasterIsr:
  3349                           	callstack 0
  3350                           
  3351 ;; *************** function _I2C_MasterFsm *****************
  3352 ;; Defined at:
  3353 ;;		line 323 in file "mcc_generated_files/i2c_master.c"
  3354 ;; Parameters:    Size  Location     Type
  3355 ;;		None
  3356 ;; Auto vars:     Size  Location     Type
  3357 ;;		None
  3358 ;; Return value:  Size  Location     Type
  3359 ;;                  1    wreg      void 
  3360 ;; Registers used:
  3361 ;;		wreg, fsr2l, fsr2h, status,2, status,0, pcl, pclath, pclatu, tosl, tblptrl, tblptrh, tblptru, prodl, prodh, cstack
  3362 ;; Tracked objects:
  3363 ;;		On entry : 0/0
  3364 ;;		On exit  : 0/0
  3365 ;;		Unchanged: 0/0
  3366 ;; Data sizes:     COMRAM   BANK0   BANK1   BANK2   BANK3   BANK4   BANK5   BANK6   BANK7   BANK8   BANK9  BANK10  BANK1
      +1  BANK12  BANK13  BANK14  BANK15
  3367 ;;      Params:         0       0       0       0       0       0       0       0       0       0       0       0       
      +0       0       0       0       0
  3368 ;;      Locals:         0       0       0       0       0       0       0       0       0       0       0       0       
      +0       0       0       0       0
  3369 ;;      Temps:          3       0       0       0       0       0       0       0       0       0       0       0       
      +0       0       0       0       0
  3370 ;;      Totals:         3       0       0       0       0       0       0       0       0       0       0       0       
      +0       0       0       0       0
  3371 ;;Total ram usage:        3 bytes
  3372 ;; Hardware stack levels used: 1
  3373 ;; Hardware stack levels required when called: 4
  3374 ;; This function calls:
  3375 ;;		_I2C_DO_ADDRESS_NACK
  3376 ;;		_I2C_DO_IDLE
  3377 ;;		_I2C_DO_RCEN
  3378 ;;		_I2C_DO_RESET
  3379 ;;		_I2C_DO_RX
  3380 ;;		_I2C_DO_RX_ACK
  3381 ;;		_I2C_DO_RX_NACK_RESTART
  3382 ;;		_I2C_DO_RX_NACK_STOP
  3383 ;;		_I2C_DO_SEND_ADR_READ
  3384 ;;		_I2C_DO_SEND_ADR_WRITE
  3385 ;;		_I2C_DO_SEND_RESTART
  3386 ;;		_I2C_DO_SEND_RESTART_READ
  3387 ;;		_I2C_DO_SEND_RESTART_WRITE
  3388 ;;		_I2C_DO_SEND_STOP
  3389 ;;		_I2C_DO_TX
  3390 ;;		_I2C_DO_TX_EMPTY
  3391 ;;		_I2C_MasterIsNack
  3392 ;;		i2_I2C_MasterClearIrq
  3393 ;; This function is called by:
  3394 ;;		_I2C_MasterIsr
  3395 ;; This function uses a non-reentrant model
  3396 ;;
  3397                           
  3398                           	psect	text37
  3399   001618                     __ptext37:
  3400                           	callstack 0
  3401   001618                     _I2C_MasterFsm:
  3402                           	callstack 19
  3403   001618                     
  3404                           ;mcc_generated_files/i2c_master.c: 325:     I2C_MasterClearIrq();
  3405   001618  ECE9  F00D         	call	i2_I2C_MasterClearIrq	;wreg free
  3406   00161C                     
  3407                           ;mcc_generated_files/i2c_master.c: 327:     if(I2C_Status.addressNackCheck && I2C_Master
      +                          IsNack())
  3408   00161C  A024               	btfss	(_I2C_Status+35)^0,0,c
  3409   00161E  EF13  F00B         	goto	i2u132_41
  3410   001622  EF15  F00B         	goto	i2u132_40
  3411   001626                     i2u132_41:
  3412   001626  EF21  F00B         	goto	i2l3503
  3413   00162A                     i2u132_40:
  3414   00162A  EC6F  F00D         	call	_I2C_MasterIsNack	;wreg free
  3415   00162E  0900               	iorlw	0
  3416   001630  B4D8               	btfsc	status,2,c
  3417   001632  EF1D  F00B         	goto	i2u133_41
  3418   001636  EF1F  F00B         	goto	i2u133_40
  3419   00163A                     i2u133_41:
  3420   00163A  EF21  F00B         	goto	i2l3503
  3421   00163E                     i2u133_40:
  3422   00163E                     
  3423                           ;mcc_generated_files/i2c_master.c: 328:     {;mcc_generated_files/i2c_master.c: 329:    
      +                               I2C_Status.state = I2C_ADDRESS_NACK;
  3424   00163E  0E0F               	movlw	15
  3425   001640  6E22               	movwf	(_I2C_Status+33)^0,c
  3426   001642                     i2l3503:
  3427                           
  3428                           ;mcc_generated_files/i2c_master.c: 331:     I2C_Status.state = i2c_fsmStateTable[I2C_Sta
      +                          tus.state]();
  3429   001642  5022               	movf	(_I2C_Status+33)^0,w,c
  3430   001644  0D02               	mullw	2
  3431   001646  50F3               	movf	243,w,c
  3432   001648  0F01               	addlw	low _i2c_fsmStateTable
  3433   00164A  6E3F               	movwf	??_I2C_MasterFsm^0,c
  3434   00164C  C03F  FFF6         	movff	??_I2C_MasterFsm,tblptrl
  3435   001650                     	if	1	;There is more than 1 active tblptr byte
  3436   001650  0E10               	movlw	high __smallconst
  3437   001652  6EF7               	movwf	tblptrh,c
  3438   001654                     	endif
  3439   001654                     	if	1	;Program memory is < 0x10000, tblptru is always zero
  3440   001654  6AF8               	clrf	tblptru,c
  3441   001656                     	endif
  3442   001656                     	if	0	;tblptru may be non-zero
  3443   001656                     	endif
  3444   001656  0009               	tblrd		*+
  3445   001658  CFF5 F040          	movff	tablat,??_I2C_MasterFsm+1
  3446   00165C  0009               	tblrd		*+
  3447   00165E  CFF5 F041          	movff	tablat,??_I2C_MasterFsm+2
  3448   001662  D802               	call	i2u134_48
  3449   001664  EF3D  F00B         	goto	i2u134_49
  3450   001668                     i2u134_48:
  3451   001668  0005               	push	
  3452   00166A  6EFA               	movwf	pclath,c
  3453   00166C  5040               	movf	(??_I2C_MasterFsm+1)^0,w,c
  3454   00166E  6EFD               	movwf	tosl,c
  3455   001670  5041               	movf	(??_I2C_MasterFsm+2)^0,w,c
  3456   001672  6EFE               	movwf	tosh,c
  3457   001674  6AFF               	clrf	tosu,c
  3458   001676  50FA               	movf	pclath,w,c
  3459   001678  0012               	return		;indir
  3460   00167A                     i2u134_49:
  3461   00167A  6E22               	movwf	(_I2C_Status+33)^0,c
  3462   00167C  0012               	return		;funcret
  3463   00167E                     __end_of_I2C_MasterFsm:
  3464                           	callstack 0
  3465                           
  3466 ;; *************** function i2_I2C_MasterClearIrq *****************
  3467 ;; Defined at:
  3468 ;;		line 642 in file "mcc_generated_files/i2c_master.c"
  3469 ;; Parameters:    Size  Location     Type
  3470 ;;		None
  3471 ;; Auto vars:     Size  Location     Type
  3472 ;;		None
  3473 ;; Return value:  Size  Location     Type
  3474 ;;                  1    wreg      void 
  3475 ;; Registers used:
  3476 ;;		None
  3477 ;; Tracked objects:
  3478 ;;		On entry : 0/0
  3479 ;;		On exit  : 0/0
  3480 ;;		Unchanged: 0/0
  3481 ;; Data sizes:     COMRAM   BANK0   BANK1   BANK2   BANK3   BANK4   BANK5   BANK6   BANK7   BANK8   BANK9  BANK10  BANK1
      +1  BANK12  BANK13  BANK14  BANK15
  3482 ;;      Params:         0       0       0       0       0       0       0       0       0       0       0       0       
      +0       0       0       0       0
  3483 ;;      Locals:         0       0       0       0       0       0       0       0       0       0       0       0       
      +0       0       0       0       0
  3484 ;;      Temps:          0       0       0       0       0       0       0       0       0       0       0       0       
      +0       0       0       0       0
  3485 ;;      Totals:         0       0       0       0       0       0       0       0       0       0       0       0       
      +0       0       0       0       0
  3486 ;;Total ram usage:        0 bytes
  3487 ;; Hardware stack levels used: 1
  3488 ;; This function calls:
  3489 ;;		Nothing
  3490 ;; This function is called by:
  3491 ;;		_I2C_MasterFsm
  3492 ;; This function uses a non-reentrant model
  3493 ;;
  3494                           
  3495                           	psect	text38
  3496   001BD2                     __ptext38:
  3497                           	callstack 0
  3498   001BD2                     i2_I2C_MasterClearIrq:
  3499                           	callstack 22
  3500   001BD2                     
  3501                           ;mcc_generated_files/i2c_master.c: 644:     PIR1bits.SSPIF = 0;
  3502   001BD2  969E               	bcf	158,3,c	;volatile
  3503   001BD4  0012               	return		;funcret
  3504   001BD6                     __end_ofi2_I2C_MasterClearIrq:
  3505                           	callstack 0
  3506                           
  3507 ;; *************** function _I2C_DO_ADDRESS_NACK *****************
  3508 ;; Defined at:
  3509 ;;		line 501 in file "mcc_generated_files/i2c_master.c"
  3510 ;; Parameters:    Size  Location     Type
  3511 ;;		None
  3512 ;; Auto vars:     Size  Location     Type
  3513 ;;		None
  3514 ;; Return value:  Size  Location     Type
  3515 ;;                  1    wreg      enum E3134
  3516 ;; Registers used:
  3517 ;;		wreg, fsr2l, fsr2h, status,2, status,0, pcl, pclath, pclatu, tosl, prodl, prodh, cstack
  3518 ;; Tracked objects:
  3519 ;;		On entry : 0/0
  3520 ;;		On exit  : 0/0
  3521 ;;		Unchanged: 0/0
  3522 ;; Data sizes:     COMRAM   BANK0   BANK1   BANK2   BANK3   BANK4   BANK5   BANK6   BANK7   BANK8   BANK9  BANK10  BANK1
      +1  BANK12  BANK13  BANK14  BANK15
  3523 ;;      Params:         0       0       0       0       0       0       0       0       0       0       0       0       
      +0       0       0       0       0
  3524 ;;      Locals:         0       0       0       0       0       0       0       0       0       0       0       0       
      +0       0       0       0       0
  3525 ;;      Temps:          2       0       0       0       0       0       0       0       0       0       0       0       
      +0       0       0       0       0
  3526 ;;      Totals:         2       0       0       0       0       0       0       0       0       0       0       0       
      +0       0       0       0       0
  3527 ;;Total ram usage:        2 bytes
  3528 ;; Hardware stack levels used: 1
  3529 ;; Hardware stack levels required when called: 3
  3530 ;; This function calls:
  3531 ;;		NULL
  3532 ;;		_I2C_CallbackReturnReset
  3533 ;;		_I2C_CallbackReturnStop
  3534 ;;		_I2C_DO_SEND_RESTART
  3535 ;;		_I2C_DO_SEND_STOP
  3536 ;;		_rd1RegCompleteHandler
  3537 ;;		_rd2RegCompleteHandler
  3538 ;;		_rdBlkRegCompleteHandler
  3539 ;;		_wr1RegCompleteHandler
  3540 ;;		_wr2RegCompleteHandler
  3541 ;; This function is called by:
  3542 ;;		_I2C_MasterFsm
  3543 ;; This function uses a non-reentrant model
  3544 ;;
  3545                           
  3546                           	psect	text39
  3547   001748                     __ptext39:
  3548                           	callstack 0
  3549   001748                     _I2C_DO_ADDRESS_NACK:
  3550                           	callstack 19
  3551   001748                     
  3552                           ;mcc_generated_files/i2c_master.c: 503:     I2C_Status.addressNackCheck = 0;
  3553   001748  9024               	bcf	(_I2C_Status+35)^0,0,c
  3554   00174A                     
  3555                           ;mcc_generated_files/i2c_master.c: 504:     I2C_Status.error = I2C_FAIL;
  3556   00174A  0E02               	movlw	2
  3557   00174C  6E23               	movwf	(_I2C_Status+34)^0,c
  3558                           
  3559                           ;mcc_generated_files/i2c_master.c: 505:     switch(I2C_Status.callbackTable[I2C_ADDR_NAC
      +                          K](I2C_Status.callbackPayload[I2C_ADDR_NACK]))
  3560   00174E  EFB1  F00B         	goto	i2l3399
  3561   001752                     i2l3389:
  3562                           
  3563                           ;mcc_generated_files/i2c_master.c: 509:             return I2C_DO_SEND_RESTART();
  3564   001752  ECC6  F00D         	call	_I2C_DO_SEND_RESTART	;wreg free
  3565   001756  EFD5  F00B         	goto	i2l383
  3566   00175A                     i2l3393:
  3567                           
  3568                           ;mcc_generated_files/i2c_master.c: 511:             return I2C_DO_SEND_STOP();
  3569   00175A  ECC2  F00D         	call	_I2C_DO_SEND_STOP	;wreg free
  3570   00175E  EFD5  F00B         	goto	i2l383
  3571   001762                     i2l3399:
  3572   001762  C011  F03A         	movff	_I2C_Status+16,I2C_CallbackReturnReset@funPtr
  3573   001766  C012  F03B         	movff	_I2C_Status+17,I2C_CallbackReturnReset@funPtr+1
  3574   00176A  D802               	call	i2u124_48
  3575   00176C  EFC1  F00B         	goto	i2u124_49
  3576   001770                     i2u124_48:
  3577   001770  0005               	push	
  3578   001772  6EFA               	movwf	pclath,c
  3579   001774  5005               	movf	(_I2C_Status+4)^0,w,c
  3580   001776  6EFD               	movwf	tosl,c
  3581   001778  5006               	movf	(_I2C_Status+5)^0,w,c
  3582   00177A  6EFE               	movwf	tosh,c
  3583   00177C  6AFF               	clrf	tosu,c
  3584   00177E  50FA               	movf	pclath,w,c
  3585   001780  0012               	return		;indir
  3586   001782                     i2u124_49:
  3587   001782  6E3D               	movwf	??_I2C_DO_ADDRESS_NACK^0,c
  3588   001784  6A3E               	clrf	(??_I2C_DO_ADDRESS_NACK+1)^0,c
  3589                           
  3590                           ; Switch on 2 bytes has been partitioned into a top level switch of size 1, and 1 sub-sw
      +                          itches
  3591                           ; Switch size 1, requested type "simple"
  3592                           ; Number of cases is 1, Range of values is 0 to 0
  3593                           ; switch strategies available:
  3594                           ; Name         Instructions Cycles
  3595                           ; simple_byte            4     3 (average)
  3596                           ;	Chosen strategy is simple_byte
  3597   001786  503E               	movf	(??_I2C_DO_ADDRESS_NACK+1)^0,w,c
  3598   001788  0A00               	xorlw	0	; case 0
  3599   00178A  B4D8               	btfsc	status,2,c
  3600   00178C  EFCA  F00B         	goto	i2l3785
  3601   001790  EFAD  F00B         	goto	i2l3393
  3602   001794                     i2l3785:
  3603                           
  3604                           ; Switch size 1, requested type "simple"
  3605                           ; Number of cases is 2, Range of values is 2 to 3
  3606                           ; switch strategies available:
  3607                           ; Name         Instructions Cycles
  3608                           ; simple_byte            7     4 (average)
  3609                           ;	Chosen strategy is simple_byte
  3610   001794  503D               	movf	??_I2C_DO_ADDRESS_NACK^0,w,c
  3611   001796  0A02               	xorlw	2	; case 2
  3612   001798  B4D8               	btfsc	status,2,c
  3613   00179A  EFA9  F00B         	goto	i2l3389
  3614   00179E  0A01               	xorlw	1	; case 3
  3615   0017A0  B4D8               	btfsc	status,2,c
  3616   0017A2  EFA9  F00B         	goto	i2l3389
  3617   0017A6  EFAD  F00B         	goto	i2l3393
  3618   0017AA                     i2l383:
  3619   0017AA  0012               	return		;funcret
  3620   0017AC                     __end_of_I2C_DO_ADDRESS_NACK:
  3621                           	callstack 0
  3622                           
  3623 ;; *************** function _I2C_DO_RESET *****************
  3624 ;; Defined at:
  3625 ;;		line 495 in file "mcc_generated_files/i2c_master.c"
  3626 ;; Parameters:    Size  Location     Type
  3627 ;;		None
  3628 ;; Auto vars:     Size  Location     Type
  3629 ;;		None
  3630 ;; Return value:  Size  Location     Type
  3631 ;;                  1    wreg      enum E3134
  3632 ;; Registers used:
  3633 ;;		wreg, status,2
  3634 ;; Tracked objects:
  3635 ;;		On entry : 0/0
  3636 ;;		On exit  : 0/0
  3637 ;;		Unchanged: 0/0
  3638 ;; Data sizes:     COMRAM   BANK0   BANK1   BANK2   BANK3   BANK4   BANK5   BANK6   BANK7   BANK8   BANK9  BANK10  BANK1
      +1  BANK12  BANK13  BANK14  BANK15
  3639 ;;      Params:         0       0       0       0       0       0       0       0       0       0       0       0       
      +0       0       0       0       0
  3640 ;;      Locals:         0       0       0       0       0       0       0       0       0       0       0       0       
      +0       0       0       0       0
  3641 ;;      Temps:          0       0       0       0       0       0       0       0       0       0       0       0       
      +0       0       0       0       0
  3642 ;;      Totals:         0       0       0       0       0       0       0       0       0       0       0       0       
      +0       0       0       0       0
  3643 ;;Total ram usage:        0 bytes
  3644 ;; Hardware stack levels used: 1
  3645 ;; This function calls:
  3646 ;;		Nothing
  3647 ;; This function is called by:
  3648 ;;		_I2C_MasterFsm
  3649 ;; This function uses a non-reentrant model
  3650 ;;
  3651                           
  3652                           	psect	text40
  3653   001B3E                     __ptext40:
  3654                           	callstack 0
  3655   001B3E                     _I2C_DO_RESET:
  3656                           	callstack 22
  3657   001B3E                     
  3658                           ;mcc_generated_files/i2c_master.c: 497:     I2C_Status.busy = 0;
  3659   001B3E  9224               	bcf	(_I2C_Status+35)^0,1,c
  3660   001B40                     
  3661                           ;mcc_generated_files/i2c_master.c: 498:     I2C_Status.error = I2C_NOERR;
  3662   001B40  0E00               	movlw	0
  3663   001B42  6E23               	movwf	(_I2C_Status+34)^0,c
  3664   001B44                     
  3665                           ;mcc_generated_files/i2c_master.c: 499:     return I2C_RESET;
  3666   001B44  0E0E               	movlw	14
  3667   001B46  0012               	return		;funcret
  3668   001B48                     __end_of_I2C_DO_RESET:
  3669                           	callstack 0
  3670                           
  3671 ;; *************** function _I2C_DO_RX_NACK_RESTART *****************
  3672 ;; Defined at:
  3673 ;;		line 489 in file "mcc_generated_files/i2c_master.c"
  3674 ;; Parameters:    Size  Location     Type
  3675 ;;		None
  3676 ;; Auto vars:     Size  Location     Type
  3677 ;;		None
  3678 ;; Return value:  Size  Location     Type
  3679 ;;                  1    wreg      enum E3134
  3680 ;; Registers used:
  3681 ;;		wreg, cstack
  3682 ;; Tracked objects:
  3683 ;;		On entry : 0/0
  3684 ;;		On exit  : 0/0
  3685 ;;		Unchanged: 0/0
  3686 ;; Data sizes:     COMRAM   BANK0   BANK1   BANK2   BANK3   BANK4   BANK5   BANK6   BANK7   BANK8   BANK9  BANK10  BANK1
      +1  BANK12  BANK13  BANK14  BANK15
  3687 ;;      Params:         0       0       0       0       0       0       0       0       0       0       0       0       
      +0       0       0       0       0
  3688 ;;      Locals:         0       0       0       0       0       0       0       0       0       0       0       0       
      +0       0       0       0       0
  3689 ;;      Temps:          0       0       0       0       0       0       0       0       0       0       0       0       
      +0       0       0       0       0
  3690 ;;      Totals:         0       0       0       0       0       0       0       0       0       0       0       0       
      +0       0       0       0       0
  3691 ;;Total ram usage:        0 bytes
  3692 ;; Hardware stack levels used: 1
  3693 ;; Hardware stack levels required when called: 1
  3694 ;; This function calls:
  3695 ;;		_I2C_MasterSendNack
  3696 ;; This function is called by:
  3697 ;;		_I2C_DO_RX
  3698 ;;		_I2C_MasterFsm
  3699 ;; This function uses a non-reentrant model
  3700 ;;
  3701                           
  3702                           	psect	text41
  3703   001B6C                     __ptext41:
  3704                           	callstack 0
  3705   001B6C                     _I2C_DO_RX_NACK_RESTART:
  3706                           	callstack 21
  3707   001B6C                     
  3708                           ;mcc_generated_files/i2c_master.c: 491:     I2C_MasterSendNack();
  3709   001B6C  ECDC  F00D         	call	_I2C_MasterSendNack	;wreg free
  3710   001B70                     
  3711                           ;mcc_generated_files/i2c_master.c: 492:     return I2C_SEND_RESTART;
  3712   001B70  0E09               	movlw	9
  3713   001B72  0012               	return		;funcret
  3714   001B74                     __end_of_I2C_DO_RX_NACK_RESTART:
  3715                           	callstack 0
  3716                           
  3717 ;; *************** function _I2C_DO_RX_NACK_STOP *****************
  3718 ;; Defined at:
  3719 ;;		line 483 in file "mcc_generated_files/i2c_master.c"
  3720 ;; Parameters:    Size  Location     Type
  3721 ;;		None
  3722 ;; Auto vars:     Size  Location     Type
  3723 ;;		None
  3724 ;; Return value:  Size  Location     Type
  3725 ;;                  1    wreg      enum E3134
  3726 ;; Registers used:
  3727 ;;		wreg, cstack
  3728 ;; Tracked objects:
  3729 ;;		On entry : 0/0
  3730 ;;		On exit  : 0/0
  3731 ;;		Unchanged: 0/0
  3732 ;; Data sizes:     COMRAM   BANK0   BANK1   BANK2   BANK3   BANK4   BANK5   BANK6   BANK7   BANK8   BANK9  BANK10  BANK1
      +1  BANK12  BANK13  BANK14  BANK15
  3733 ;;      Params:         0       0       0       0       0       0       0       0       0       0       0       0       
      +0       0       0       0       0
  3734 ;;      Locals:         0       0       0       0       0       0       0       0       0       0       0       0       
      +0       0       0       0       0
  3735 ;;      Temps:          0       0       0       0       0       0       0       0       0       0       0       0       
      +0       0       0       0       0
  3736 ;;      Totals:         0       0       0       0       0       0       0       0       0       0       0       0       
      +0       0       0       0       0
  3737 ;;Total ram usage:        0 bytes
  3738 ;; Hardware stack levels used: 1
  3739 ;; Hardware stack levels required when called: 1
  3740 ;; This function calls:
  3741 ;;		_I2C_MasterSendNack
  3742 ;; This function is called by:
  3743 ;;		_I2C_DO_RX
  3744 ;;		_I2C_MasterFsm
  3745 ;; This function uses a non-reentrant model
  3746 ;;
  3747                           
  3748                           	psect	text42
  3749   001B74                     __ptext42:
  3750                           	callstack 0
  3751   001B74                     _I2C_DO_RX_NACK_STOP:
  3752                           	callstack 21
  3753   001B74                     
  3754                           ;mcc_generated_files/i2c_master.c: 485:     I2C_MasterSendNack();
  3755   001B74  ECDC  F00D         	call	_I2C_MasterSendNack	;wreg free
  3756   001B78                     
  3757                           ;mcc_generated_files/i2c_master.c: 486:     return I2C_SEND_STOP;
  3758   001B78  0E0A               	movlw	10
  3759   001B7A  0012               	return		;funcret
  3760   001B7C                     __end_of_I2C_DO_RX_NACK_STOP:
  3761                           	callstack 0
  3762                           
  3763 ;; *************** function _I2C_DO_RX_ACK *****************
  3764 ;; Defined at:
  3765 ;;		line 476 in file "mcc_generated_files/i2c_master.c"
  3766 ;; Parameters:    Size  Location     Type
  3767 ;;		None
  3768 ;; Auto vars:     Size  Location     Type
  3769 ;;		None
  3770 ;; Return value:  Size  Location     Type
  3771 ;;                  1    wreg      enum E3134
  3772 ;; Registers used:
  3773 ;;		wreg, cstack
  3774 ;; Tracked objects:
  3775 ;;		On entry : 0/0
  3776 ;;		On exit  : 0/0
  3777 ;;		Unchanged: 0/0
  3778 ;; Data sizes:     COMRAM   BANK0   BANK1   BANK2   BANK3   BANK4   BANK5   BANK6   BANK7   BANK8   BANK9  BANK10  BANK1
      +1  BANK12  BANK13  BANK14  BANK15
  3779 ;;      Params:         0       0       0       0       0       0       0       0       0       0       0       0       
      +0       0       0       0       0
  3780 ;;      Locals:         0       0       0       0       0       0       0       0       0       0       0       0       
      +0       0       0       0       0
  3781 ;;      Temps:          0       0       0       0       0       0       0       0       0       0       0       0       
      +0       0       0       0       0
  3782 ;;      Totals:         0       0       0       0       0       0       0       0       0       0       0       0       
      +0       0       0       0       0
  3783 ;;Total ram usage:        0 bytes
  3784 ;; Hardware stack levels used: 1
  3785 ;; Hardware stack levels required when called: 1
  3786 ;; This function calls:
  3787 ;;		_I2C_MasterSendAck
  3788 ;; This function is called by:
  3789 ;;		_I2C_MasterFsm
  3790 ;; This function uses a non-reentrant model
  3791 ;;
  3792                           
  3793                           	psect	text43
  3794   001B7C                     __ptext43:
  3795                           	callstack 0
  3796   001B7C                     _I2C_DO_RX_ACK:
  3797                           	callstack 21
  3798   001B7C                     
  3799                           ;mcc_generated_files/i2c_master.c: 478:     I2C_MasterSendAck();
  3800   001B7C  ECD9  F00D         	call	_I2C_MasterSendAck	;wreg free
  3801   001B80                     
  3802                           ;mcc_generated_files/i2c_master.c: 479:     return I2C_RCEN;
  3803   001B80  0E05               	movlw	5
  3804   001B82  0012               	return		;funcret
  3805   001B84                     __end_of_I2C_DO_RX_ACK:
  3806                           	callstack 0
  3807                           
  3808 ;; *************** function _I2C_DO_SEND_STOP *****************
  3809 ;; Defined at:
  3810 ;;		line 470 in file "mcc_generated_files/i2c_master.c"
  3811 ;; Parameters:    Size  Location     Type
  3812 ;;		None
  3813 ;; Auto vars:     Size  Location     Type
  3814 ;;		None
  3815 ;; Return value:  Size  Location     Type
  3816 ;;                  1    wreg      enum E3134
  3817 ;; Registers used:
  3818 ;;		wreg, cstack
  3819 ;; Tracked objects:
  3820 ;;		On entry : 0/0
  3821 ;;		On exit  : 0/0
  3822 ;;		Unchanged: 0/0
  3823 ;; Data sizes:     COMRAM   BANK0   BANK1   BANK2   BANK3   BANK4   BANK5   BANK6   BANK7   BANK8   BANK9  BANK10  BANK1
      +1  BANK12  BANK13  BANK14  BANK15
  3824 ;;      Params:         0       0       0       0       0       0       0       0       0       0       0       0       
      +0       0       0       0       0
  3825 ;;      Locals:         0       0       0       0       0       0       0       0       0       0       0       0       
      +0       0       0       0       0
  3826 ;;      Temps:          0       0       0       0       0       0       0       0       0       0       0       0       
      +0       0       0       0       0
  3827 ;;      Totals:         0       0       0       0       0       0       0       0       0       0       0       0       
      +0       0       0       0       0
  3828 ;;Total ram usage:        0 bytes
  3829 ;; Hardware stack levels used: 1
  3830 ;; Hardware stack levels required when called: 1
  3831 ;; This function calls:
  3832 ;;		_I2C_MasterStop
  3833 ;; This function is called by:
  3834 ;;		_I2C_DO_TX
  3835 ;;		_I2C_DO_TX_EMPTY
  3836 ;;		_I2C_DO_ADDRESS_NACK
  3837 ;;		_I2C_MasterFsm
  3838 ;; This function uses a non-reentrant model
  3839 ;;
  3840                           
  3841                           	psect	text44
  3842   001B84                     __ptext44:
  3843                           	callstack 0
  3844   001B84                     _I2C_DO_SEND_STOP:
  3845                           	callstack 20
  3846   001B84                     
  3847                           ;mcc_generated_files/i2c_master.c: 472:     I2C_MasterStop();
  3848   001B84  ECF5  F00D         	call	_I2C_MasterStop	;wreg free
  3849   001B88                     
  3850                           ;mcc_generated_files/i2c_master.c: 473:     return I2C_IDLE;
  3851   001B88  0E00               	movlw	0
  3852   001B8A  0012               	return		;funcret
  3853   001B8C                     __end_of_I2C_DO_SEND_STOP:
  3854                           	callstack 0
  3855                           
  3856 ;; *************** function _I2C_DO_SEND_RESTART *****************
  3857 ;; Defined at:
  3858 ;;		line 464 in file "mcc_generated_files/i2c_master.c"
  3859 ;; Parameters:    Size  Location     Type
  3860 ;;		None
  3861 ;; Auto vars:     Size  Location     Type
  3862 ;;		None
  3863 ;; Return value:  Size  Location     Type
  3864 ;;                  1    wreg      enum E3134
  3865 ;; Registers used:
  3866 ;;		wreg, cstack
  3867 ;; Tracked objects:
  3868 ;;		On entry : 0/0
  3869 ;;		On exit  : 0/0
  3870 ;;		Unchanged: 0/0
  3871 ;; Data sizes:     COMRAM   BANK0   BANK1   BANK2   BANK3   BANK4   BANK5   BANK6   BANK7   BANK8   BANK9  BANK10  BANK1
      +1  BANK12  BANK13  BANK14  BANK15
  3872 ;;      Params:         0       0       0       0       0       0       0       0       0       0       0       0       
      +0       0       0       0       0
  3873 ;;      Locals:         0       0       0       0       0       0       0       0       0       0       0       0       
      +0       0       0       0       0
  3874 ;;      Temps:          0       0       0       0       0       0       0       0       0       0       0       0       
      +0       0       0       0       0
  3875 ;;      Totals:         0       0       0       0       0       0       0       0       0       0       0       0       
      +0       0       0       0       0
  3876 ;;Total ram usage:        0 bytes
  3877 ;; Hardware stack levels used: 1
  3878 ;; Hardware stack levels required when called: 1
  3879 ;; This function calls:
  3880 ;;		_I2C_MasterEnableRestart
  3881 ;; This function is called by:
  3882 ;;		_I2C_DO_TX_EMPTY
  3883 ;;		_I2C_DO_ADDRESS_NACK
  3884 ;;		_I2C_MasterFsm
  3885 ;; This function uses a non-reentrant model
  3886 ;;
  3887                           
  3888                           	psect	text45
  3889   001B8C                     __ptext45:
  3890                           	callstack 0
  3891   001B8C                     _I2C_DO_SEND_RESTART:
  3892                           	callstack 20
  3893   001B8C                     
  3894                           ;mcc_generated_files/i2c_master.c: 466:     I2C_MasterEnableRestart();
  3895   001B8C  ECF7  F00D         	call	_I2C_MasterEnableRestart	;wreg free
  3896   001B90                     
  3897                           ;mcc_generated_files/i2c_master.c: 467:     return I2C_SEND_ADR_READ;
  3898   001B90  0E01               	movlw	1
  3899   001B92  0012               	return		;funcret
  3900   001B94                     __end_of_I2C_DO_SEND_RESTART:
  3901                           	callstack 0
  3902                           
  3903 ;; *************** function _I2C_DO_SEND_RESTART_WRITE *****************
  3904 ;; Defined at:
  3905 ;;		line 457 in file "mcc_generated_files/i2c_master.c"
  3906 ;; Parameters:    Size  Location     Type
  3907 ;;		None
  3908 ;; Auto vars:     Size  Location     Type
  3909 ;;		None
  3910 ;; Return value:  Size  Location     Type
  3911 ;;                  1    wreg      enum E3134
  3912 ;; Registers used:
  3913 ;;		wreg, cstack
  3914 ;; Tracked objects:
  3915 ;;		On entry : 0/0
  3916 ;;		On exit  : 0/0
  3917 ;;		Unchanged: 0/0
  3918 ;; Data sizes:     COMRAM   BANK0   BANK1   BANK2   BANK3   BANK4   BANK5   BANK6   BANK7   BANK8   BANK9  BANK10  BANK1
      +1  BANK12  BANK13  BANK14  BANK15
  3919 ;;      Params:         0       0       0       0       0       0       0       0       0       0       0       0       
      +0       0       0       0       0
  3920 ;;      Locals:         0       0       0       0       0       0       0       0       0       0       0       0       
      +0       0       0       0       0
  3921 ;;      Temps:          0       0       0       0       0       0       0       0       0       0       0       0       
      +0       0       0       0       0
  3922 ;;      Totals:         0       0       0       0       0       0       0       0       0       0       0       0       
      +0       0       0       0       0
  3923 ;;Total ram usage:        0 bytes
  3924 ;; Hardware stack levels used: 1
  3925 ;; Hardware stack levels required when called: 1
  3926 ;; This function calls:
  3927 ;;		_I2C_MasterEnableRestart
  3928 ;; This function is called by:
  3929 ;;		_I2C_DO_TX
  3930 ;;		_I2C_MasterFsm
  3931 ;; This function uses a non-reentrant model
  3932 ;;
  3933                           
  3934                           	psect	text46
  3935   001B94                     __ptext46:
  3936                           	callstack 0
  3937   001B94                     _I2C_DO_SEND_RESTART_WRITE:
  3938                           	callstack 20
  3939   001B94                     
  3940                           ;mcc_generated_files/i2c_master.c: 459:     I2C_MasterEnableRestart();
  3941   001B94  ECF7  F00D         	call	_I2C_MasterEnableRestart	;wreg free
  3942   001B98                     
  3943                           ;mcc_generated_files/i2c_master.c: 460:     return I2C_SEND_ADR_WRITE;
  3944   001B98  0E02               	movlw	2
  3945   001B9A  0012               	return		;funcret
  3946   001B9C                     __end_of_I2C_DO_SEND_RESTART_WRITE:
  3947                           	callstack 0
  3948                           
  3949 ;; *************** function _I2C_DO_SEND_RESTART_READ *****************
  3950 ;; Defined at:
  3951 ;;		line 451 in file "mcc_generated_files/i2c_master.c"
  3952 ;; Parameters:    Size  Location     Type
  3953 ;;		None
  3954 ;; Auto vars:     Size  Location     Type
  3955 ;;		None
  3956 ;; Return value:  Size  Location     Type
  3957 ;;                  1    wreg      enum E3134
  3958 ;; Registers used:
  3959 ;;		wreg, cstack
  3960 ;; Tracked objects:
  3961 ;;		On entry : 0/0
  3962 ;;		On exit  : 0/0
  3963 ;;		Unchanged: 0/0
  3964 ;; Data sizes:     COMRAM   BANK0   BANK1   BANK2   BANK3   BANK4   BANK5   BANK6   BANK7   BANK8   BANK9  BANK10  BANK1
      +1  BANK12  BANK13  BANK14  BANK15
  3965 ;;      Params:         0       0       0       0       0       0       0       0       0       0       0       0       
      +0       0       0       0       0
  3966 ;;      Locals:         0       0       0       0       0       0       0       0       0       0       0       0       
      +0       0       0       0       0
  3967 ;;      Temps:          0       0       0       0       0       0       0       0       0       0       0       0       
      +0       0       0       0       0
  3968 ;;      Totals:         0       0       0       0       0       0       0       0       0       0       0       0       
      +0       0       0       0       0
  3969 ;;Total ram usage:        0 bytes
  3970 ;; Hardware stack levels used: 1
  3971 ;; Hardware stack levels required when called: 1
  3972 ;; This function calls:
  3973 ;;		_I2C_MasterEnableRestart
  3974 ;; This function is called by:
  3975 ;;		_I2C_DO_TX
  3976 ;;		_I2C_MasterFsm
  3977 ;; This function uses a non-reentrant model
  3978 ;;
  3979                           
  3980                           	psect	text47
  3981   001B9C                     __ptext47:
  3982                           	callstack 0
  3983   001B9C                     _I2C_DO_SEND_RESTART_READ:
  3984                           	callstack 20
  3985   001B9C                     
  3986                           ;mcc_generated_files/i2c_master.c: 453:     I2C_MasterEnableRestart();
  3987   001B9C  ECF7  F00D         	call	_I2C_MasterEnableRestart	;wreg free
  3988   001BA0                     
  3989                           ;mcc_generated_files/i2c_master.c: 454:     return I2C_SEND_ADR_READ;
  3990   001BA0  0E01               	movlw	1
  3991   001BA2  0012               	return		;funcret
  3992   001BA4                     __end_of_I2C_DO_SEND_RESTART_READ:
  3993                           	callstack 0
  3994                           
  3995 ;; *************** function _I2C_DO_RCEN *****************
  3996 ;; Defined at:
  3997 ;;		line 404 in file "mcc_generated_files/i2c_master.c"
  3998 ;; Parameters:    Size  Location     Type
  3999 ;;		None
  4000 ;; Auto vars:     Size  Location     Type
  4001 ;;		None
  4002 ;; Return value:  Size  Location     Type
  4003 ;;                  1    wreg      enum E3134
  4004 ;; Registers used:
  4005 ;;		wreg, cstack
  4006 ;; Tracked objects:
  4007 ;;		On entry : 0/0
  4008 ;;		On exit  : 0/0
  4009 ;;		Unchanged: 0/0
  4010 ;; Data sizes:     COMRAM   BANK0   BANK1   BANK2   BANK3   BANK4   BANK5   BANK6   BANK7   BANK8   BANK9  BANK10  BANK1
      +1  BANK12  BANK13  BANK14  BANK15
  4011 ;;      Params:         0       0       0       0       0       0       0       0       0       0       0       0       
      +0       0       0       0       0
  4012 ;;      Locals:         0       0       0       0       0       0       0       0       0       0       0       0       
      +0       0       0       0       0
  4013 ;;      Temps:          0       0       0       0       0       0       0       0       0       0       0       0       
      +0       0       0       0       0
  4014 ;;      Totals:         0       0       0       0       0       0       0       0       0       0       0       0       
      +0       0       0       0       0
  4015 ;;Total ram usage:        0 bytes
  4016 ;; Hardware stack levels used: 1
  4017 ;; Hardware stack levels required when called: 1
  4018 ;; This function calls:
  4019 ;;		_I2C_MasterStartRx
  4020 ;; This function is called by:
  4021 ;;		_I2C_MasterFsm
  4022 ;; This function uses a non-reentrant model
  4023 ;;
  4024                           
  4025                           	psect	text48
  4026   001B48                     __ptext48:
  4027                           	callstack 0
  4028   001B48                     _I2C_DO_RCEN:
  4029                           	callstack 21
  4030   001B48                     
  4031                           ;mcc_generated_files/i2c_master.c: 406:     I2C_Status.addressNackCheck = 0;
  4032   001B48  9024               	bcf	(_I2C_Status+35)^0,0,c
  4033   001B4A                     
  4034                           ;mcc_generated_files/i2c_master.c: 407:     I2C_MasterStartRx();
  4035   001B4A  ECEF  F00D         	call	_I2C_MasterStartRx	;wreg free
  4036   001B4E                     
  4037                           ;mcc_generated_files/i2c_master.c: 408:     return I2C_RX;
  4038   001B4E  0E04               	movlw	4
  4039   001B50  0012               	return		;funcret
  4040   001B52                     __end_of_I2C_DO_RCEN:
  4041                           	callstack 0
  4042                           
  4043 ;; *************** function _I2C_DO_RX *****************
  4044 ;; Defined at:
  4045 ;;		line 380 in file "mcc_generated_files/i2c_master.c"
  4046 ;; Parameters:    Size  Location     Type
  4047 ;;		None
  4048 ;; Auto vars:     Size  Location     Type
  4049 ;;		None
  4050 ;; Return value:  Size  Location     Type
  4051 ;;                  1    wreg      enum E3134
  4052 ;; Registers used:
  4053 ;;		wreg, fsr2l, fsr2h, status,2, status,0, pcl, pclath, pclatu, tosl, prodl, prodh, cstack
  4054 ;; Tracked objects:
  4055 ;;		On entry : 0/0
  4056 ;;		On exit  : 0/0
  4057 ;;		Unchanged: 0/0
  4058 ;; Data sizes:     COMRAM   BANK0   BANK1   BANK2   BANK3   BANK4   BANK5   BANK6   BANK7   BANK8   BANK9  BANK10  BANK1
      +1  BANK12  BANK13  BANK14  BANK15
  4059 ;;      Params:         0       0       0       0       0       0       0       0       0       0       0       0       
      +0       0       0       0       0
  4060 ;;      Locals:         0       0       0       0       0       0       0       0       0       0       0       0       
      +0       0       0       0       0
  4061 ;;      Temps:          2       0       0       0       0       0       0       0       0       0       0       0       
      +0       0       0       0       0
  4062 ;;      Totals:         2       0       0       0       0       0       0       0       0       0       0       0       
      +0       0       0       0       0
  4063 ;;Total ram usage:        2 bytes
  4064 ;; Hardware stack levels used: 1
  4065 ;; Hardware stack levels required when called: 3
  4066 ;; This function calls:
  4067 ;;		NULL
  4068 ;;		_I2C_CallbackReturnReset
  4069 ;;		_I2C_CallbackReturnStop
  4070 ;;		_I2C_DO_RX_NACK_RESTART
  4071 ;;		_I2C_DO_RX_NACK_STOP
  4072 ;;		_I2C_MasterGetRxData
  4073 ;;		_I2C_MasterSendAck
  4074 ;;		_rd1RegCompleteHandler
  4075 ;;		_rd2RegCompleteHandler
  4076 ;;		_rdBlkRegCompleteHandler
  4077 ;;		_wr1RegCompleteHandler
  4078 ;;		_wr2RegCompleteHandler
  4079 ;; This function is called by:
  4080 ;;		_I2C_MasterFsm
  4081 ;; This function uses a non-reentrant model
  4082 ;;
  4083                           
  4084                           	psect	text49
  4085   0010EE                     __ptext49:
  4086                           	callstack 0
  4087   0010EE                     _I2C_DO_RX:
  4088                           	callstack 19
  4089   0010EE                     
  4090                           ;mcc_generated_files/i2c_master.c: 382:     *I2C_Status.data_ptr++ = I2C_MasterGetRxData
      +                          ();
  4091   0010EE  ECED  F00D         	call	_I2C_MasterGetRxData	;wreg free
  4092   0010F2  C01E  FFD9         	movff	_I2C_Status+29,fsr2l
  4093   0010F6  C01F  FFDA         	movff	_I2C_Status+30,fsr2h
  4094   0010FA  6EDF               	movwf	indf2,c
  4095   0010FC  4A1E               	infsnz	(_I2C_Status+29)^0,f,c
  4096   0010FE  2A1F               	incf	(_I2C_Status+30)^0,f,c
  4097   001100                     
  4098                           ;mcc_generated_files/i2c_master.c: 383:     if(--I2C_Status.data_length)
  4099   001100  0620               	decf	(_I2C_Status+31)^0,f,c
  4100   001102  A0D8               	btfss	status,0,c
  4101   001104  0621               	decf	(_I2C_Status+32)^0,f,c
  4102   001106  5020               	movf	(_I2C_Status+31)^0,w,c
  4103   001108  1021               	iorwf	(_I2C_Status+32)^0,w,c
  4104   00110A  B4D8               	btfsc	status,2,c
  4105   00110C  EF8A  F008         	goto	i2u121_41
  4106   001110  EF8C  F008         	goto	i2u121_40
  4107   001114                     i2u121_41:
  4108   001114  EF91  F008         	goto	i2l320
  4109   001118                     i2u121_40:
  4110   001118                     
  4111                           ;mcc_generated_files/i2c_master.c: 384:     {;mcc_generated_files/i2c_master.c: 385:    
      +                               I2C_MasterSendAck();
  4112   001118  ECD9  F00D         	call	_I2C_MasterSendAck	;wreg free
  4113   00111C                     
  4114                           ;mcc_generated_files/i2c_master.c: 386:         return I2C_RCEN;
  4115   00111C  0E05               	movlw	5
  4116   00111E  EFC8  F008         	goto	i2l321
  4117   001122                     i2l320:
  4118                           
  4119                           ;mcc_generated_files/i2c_master.c: 389:     {;mcc_generated_files/i2c_master.c: 390:    
      +                               I2C_Status.bufferFree = 1;
  4120   001122  8624               	bsf	(_I2C_Status+35)^0,3,c
  4121                           
  4122                           ;mcc_generated_files/i2c_master.c: 391:         switch(I2C_Status.callbackTable[I2C_DATA
      +                          _COMPLETE](I2C_Status.callbackPayload[I2C_DATA_COMPLETE]))
  4123   001124  EF9C  F008         	goto	i2l3349
  4124   001128                     i2l3339:
  4125                           
  4126                           ;mcc_generated_files/i2c_master.c: 395:                 return I2C_DO_RX_NACK_RESTART();
  4127   001128  ECB6  F00D         	call	_I2C_DO_RX_NACK_RESTART	;wreg free
  4128   00112C  EFC8  F008         	goto	i2l321
  4129   001130                     i2l3343:
  4130                           
  4131                           ;mcc_generated_files/i2c_master.c: 399:                 return I2C_DO_RX_NACK_STOP();
  4132   001130  ECBA  F00D         	call	_I2C_DO_RX_NACK_STOP	;wreg free
  4133   001134  EFC8  F008         	goto	i2l321
  4134   001138                     i2l3349:
  4135   001138  C00D  F03A         	movff	_I2C_Status+12,I2C_CallbackReturnReset@funPtr
  4136   00113C  C00E  F03B         	movff	_I2C_Status+13,I2C_CallbackReturnReset@funPtr+1
  4137   001140  D802               	call	i2u122_48
  4138   001142  EFAC  F008         	goto	i2u122_49
  4139   001146                     i2u122_48:
  4140   001146  0005               	push	
  4141   001148  6EFA               	movwf	pclath,c
  4142   00114A  5001               	movf	_I2C_Status^0,w,c
  4143   00114C  6EFD               	movwf	tosl,c
  4144   00114E  5002               	movf	(_I2C_Status+1)^0,w,c
  4145   001150  6EFE               	movwf	tosh,c
  4146   001152  6AFF               	clrf	tosu,c
  4147   001154  50FA               	movf	pclath,w,c
  4148   001156  0012               	return		;indir
  4149   001158                     i2u122_49:
  4150   001158  6E3D               	movwf	??_I2C_DO_RX^0,c
  4151   00115A  6A3E               	clrf	(??_I2C_DO_RX+1)^0,c
  4152                           
  4153                           ; Switch on 2 bytes has been partitioned into a top level switch of size 1, and 1 sub-sw
      +                          itches
  4154                           ; Switch size 1, requested type "simple"
  4155                           ; Number of cases is 1, Range of values is 0 to 0
  4156                           ; switch strategies available:
  4157                           ; Name         Instructions Cycles
  4158                           ; simple_byte            4     3 (average)
  4159                           ;	Chosen strategy is simple_byte
  4160   00115C  503E               	movf	(??_I2C_DO_RX+1)^0,w,c
  4161   00115E  0A00               	xorlw	0	; case 0
  4162   001160  B4D8               	btfsc	status,2,c
  4163   001162  EFB5  F008         	goto	i2l3787
  4164   001166  EF98  F008         	goto	i2l3343
  4165   00116A                     i2l3787:
  4166                           
  4167                           ; Switch size 1, requested type "simple"
  4168                           ; Number of cases is 4, Range of values is 1 to 4
  4169                           ; switch strategies available:
  4170                           ; Name         Instructions Cycles
  4171                           ; simple_byte           13     7 (average)
  4172                           ;	Chosen strategy is simple_byte
  4173   00116A  503D               	movf	??_I2C_DO_RX^0,w,c
  4174   00116C  0A01               	xorlw	1	; case 1
  4175   00116E  B4D8               	btfsc	status,2,c
  4176   001170  EF98  F008         	goto	i2l3343
  4177   001174  0A03               	xorlw	3	; case 2
  4178   001176  B4D8               	btfsc	status,2,c
  4179   001178  EF94  F008         	goto	i2l3339
  4180   00117C  0A01               	xorlw	1	; case 3
  4181   00117E  B4D8               	btfsc	status,2,c
  4182   001180  EF94  F008         	goto	i2l3339
  4183   001184  0A07               	xorlw	7	; case 4
  4184   001186  B4D8               	btfsc	status,2,c
  4185   001188  EF98  F008         	goto	i2l3343
  4186   00118C  EF98  F008         	goto	i2l3343
  4187   001190                     i2l321:
  4188   001190  0012               	return		;funcret
  4189   001192                     __end_of_I2C_DO_RX:
  4190                           	callstack 0
  4191                           
  4192 ;; *************** function _I2C_DO_TX *****************
  4193 ;; Defined at:
  4194 ;;		line 356 in file "mcc_generated_files/i2c_master.c"
  4195 ;; Parameters:    Size  Location     Type
  4196 ;;		None
  4197 ;; Auto vars:     Size  Location     Type
  4198 ;;		None
  4199 ;; Return value:  Size  Location     Type
  4200 ;;                  1    wreg      enum E3134
  4201 ;; Registers used:
  4202 ;;		wreg, fsr2l, fsr2h, status,2, status,0, pcl, pclath, pclatu, tosl, prodl, prodh, cstack
  4203 ;; Tracked objects:
  4204 ;;		On entry : 0/0
  4205 ;;		On exit  : 0/0
  4206 ;;		Unchanged: 0/0
  4207 ;; Data sizes:     COMRAM   BANK0   BANK1   BANK2   BANK3   BANK4   BANK5   BANK6   BANK7   BANK8   BANK9  BANK10  BANK1
      +1  BANK12  BANK13  BANK14  BANK15
  4208 ;;      Params:         0       0       0       0       0       0       0       0       0       0       0       0       
      +0       0       0       0       0
  4209 ;;      Locals:         0       0       0       0       0       0       0       0       0       0       0       0       
      +0       0       0       0       0
  4210 ;;      Temps:          2       0       0       0       0       0       0       0       0       0       0       0       
      +0       0       0       0       0
  4211 ;;      Totals:         2       0       0       0       0       0       0       0       0       0       0       0       
      +0       0       0       0       0
  4212 ;;Total ram usage:        2 bytes
  4213 ;; Hardware stack levels used: 1
  4214 ;; Hardware stack levels required when called: 3
  4215 ;; This function calls:
  4216 ;;		NULL
  4217 ;;		_I2C_CallbackReturnReset
  4218 ;;		_I2C_CallbackReturnStop
  4219 ;;		_I2C_DO_SEND_RESTART_READ
  4220 ;;		_I2C_DO_SEND_RESTART_WRITE
  4221 ;;		_I2C_DO_SEND_STOP
  4222 ;;		_I2C_MasterIsNack
  4223 ;;		_I2C_MasterSendTxData
  4224 ;;		_rd1RegCompleteHandler
  4225 ;;		_rd2RegCompleteHandler
  4226 ;;		_rdBlkRegCompleteHandler
  4227 ;;		_wr1RegCompleteHandler
  4228 ;;		_wr2RegCompleteHandler
  4229 ;; This function is called by:
  4230 ;;		_I2C_MasterFsm
  4231 ;; This function uses a non-reentrant model
  4232 ;;
  4233                           
  4234                           	psect	text50
  4235   001030                     __ptext50:
  4236                           	callstack 0
  4237   001030                     _I2C_DO_TX:
  4238                           	callstack 19
  4239   001030                     
  4240                           ;mcc_generated_files/i2c_master.c: 358:     if(I2C_MasterIsNack())
  4241   001030  EC6F  F00D         	call	_I2C_MasterIsNack	;wreg free
  4242   001034  0900               	iorlw	0
  4243   001036  B4D8               	btfsc	status,2,c
  4244   001038  EF20  F008         	goto	i2u118_41
  4245   00103C  EF22  F008         	goto	i2u118_40
  4246   001040                     i2u118_41:
  4247   001040  EF5C  F008         	goto	i2l304
  4248   001044                     i2u118_40:
  4249   001044  EF30  F008         	goto	i2l3309
  4250   001048                     i2l3295:
  4251                           
  4252                           ;mcc_generated_files/i2c_master.c: 363:                 return I2C_DO_SEND_RESTART_READ(
      +                          );
  4253   001048  ECCE  F00D         	call	_I2C_DO_SEND_RESTART_READ	;wreg free
  4254   00104C  EF76  F008         	goto	i2l307
  4255   001050                     i2l3299:
  4256                           
  4257                           ;mcc_generated_files/i2c_master.c: 365:                   return I2C_DO_SEND_RESTART_WRI
      +                          TE();
  4258   001050  ECCA  F00D         	call	_I2C_DO_SEND_RESTART_WRITE	;wreg free
  4259   001054  EF76  F008         	goto	i2l307
  4260   001058                     i2l3303:
  4261                           
  4262                           ;mcc_generated_files/i2c_master.c: 369:                 return I2C_DO_SEND_STOP();
  4263   001058  ECC2  F00D         	call	_I2C_DO_SEND_STOP	;wreg free
  4264   00105C  EF76  F008         	goto	i2l307
  4265   001060                     i2l3309:
  4266   001060  C013  F03A         	movff	_I2C_Status+18,I2C_CallbackReturnReset@funPtr
  4267   001064  C014  F03B         	movff	_I2C_Status+19,I2C_CallbackReturnReset@funPtr+1
  4268   001068  D802               	call	i2u119_48
  4269   00106A  EF40  F008         	goto	i2u119_49
  4270   00106E                     i2u119_48:
  4271   00106E  0005               	push	
  4272   001070  6EFA               	movwf	pclath,c
  4273   001072  5007               	movf	(_I2C_Status+6)^0,w,c
  4274   001074  6EFD               	movwf	tosl,c
  4275   001076  5008               	movf	(_I2C_Status+7)^0,w,c
  4276   001078  6EFE               	movwf	tosh,c
  4277   00107A  6AFF               	clrf	tosu,c
  4278   00107C  50FA               	movf	pclath,w,c
  4279   00107E  0012               	return		;indir
  4280   001080                     i2u119_49:
  4281   001080  6E3D               	movwf	??_I2C_DO_TX^0,c
  4282   001082  6A3E               	clrf	(??_I2C_DO_TX+1)^0,c
  4283                           
  4284                           ; Switch on 2 bytes has been partitioned into a top level switch of size 1, and 1 sub-sw
      +                          itches
  4285                           ; Switch size 1, requested type "simple"
  4286                           ; Number of cases is 1, Range of values is 0 to 0
  4287                           ; switch strategies available:
  4288                           ; Name         Instructions Cycles
  4289                           ; simple_byte            4     3 (average)
  4290                           ;	Chosen strategy is simple_byte
  4291   001084  503E               	movf	(??_I2C_DO_TX+1)^0,w,c
  4292   001086  0A00               	xorlw	0	; case 0
  4293   001088  B4D8               	btfsc	status,2,c
  4294   00108A  EF49  F008         	goto	i2l3789
  4295   00108E  EF2C  F008         	goto	i2l3303
  4296   001092                     i2l3789:
  4297                           
  4298                           ; Switch size 1, requested type "simple"
  4299                           ; Number of cases is 4, Range of values is 1 to 4
  4300                           ; switch strategies available:
  4301                           ; Name         Instructions Cycles
  4302                           ; simple_byte           13     7 (average)
  4303                           ;	Chosen strategy is simple_byte
  4304   001092  503D               	movf	??_I2C_DO_TX^0,w,c
  4305   001094  0A01               	xorlw	1	; case 1
  4306   001096  B4D8               	btfsc	status,2,c
  4307   001098  EF2C  F008         	goto	i2l3303
  4308   00109C  0A03               	xorlw	3	; case 2
  4309   00109E  B4D8               	btfsc	status,2,c
  4310   0010A0  EF24  F008         	goto	i2l3295
  4311   0010A4  0A01               	xorlw	1	; case 3
  4312   0010A6  B4D8               	btfsc	status,2,c
  4313   0010A8  EF28  F008         	goto	i2l3299
  4314   0010AC  0A07               	xorlw	7	; case 4
  4315   0010AE  B4D8               	btfsc	status,2,c
  4316   0010B0  EF2C  F008         	goto	i2l3303
  4317   0010B4  EF2C  F008         	goto	i2l3303
  4318   0010B8                     i2l304:
  4319                           
  4320                           ;mcc_generated_files/i2c_master.c: 373:     {;mcc_generated_files/i2c_master.c: 374:    
      +                               I2C_Status.addressNackCheck = 0;
  4321   0010B8  9024               	bcf	(_I2C_Status+35)^0,0,c
  4322   0010BA                     
  4323                           ;mcc_generated_files/i2c_master.c: 375:         I2C_MasterSendTxData(*I2C_Status.data_pt
      +                          r++);
  4324   0010BA  C01E  FFD9         	movff	_I2C_Status+29,fsr2l
  4325   0010BE  C01F  FFDA         	movff	_I2C_Status+30,fsr2h
  4326   0010C2  4A1E               	infsnz	(_I2C_Status+29)^0,f,c
  4327   0010C4  2A1F               	incf	(_I2C_Status+30)^0,f,c
  4328   0010C6  50DF               	movf	indf2,w,c
  4329   0010C8  ECD2  F00D         	call	_I2C_MasterSendTxData
  4330   0010CC                     
  4331                           ;mcc_generated_files/i2c_master.c: 376:         return (--I2C_Status.data_length)?I2C_TX
      +                          :I2C_TX_EMPTY;
  4332   0010CC  0620               	decf	(_I2C_Status+31)^0,f,c
  4333   0010CE  A0D8               	btfss	status,0,c
  4334   0010D0  0621               	decf	(_I2C_Status+32)^0,f,c
  4335   0010D2  5020               	movf	(_I2C_Status+31)^0,w,c
  4336   0010D4  1021               	iorwf	(_I2C_Status+32)^0,w,c
  4337   0010D6  A4D8               	btfss	status,2,c
  4338   0010D8  EF70  F008         	goto	i2u120_41
  4339   0010DC  EF72  F008         	goto	i2u120_40
  4340   0010E0                     i2u120_41:
  4341   0010E0  EF75  F008         	goto	i2l3317
  4342   0010E4                     i2u120_40:
  4343   0010E4  0E06               	movlw	6
  4344   0010E6  EF76  F008         	goto	i2l307
  4345   0010EA                     i2l3317:
  4346   0010EA  0E03               	movlw	3
  4347   0010EC                     i2l307:
  4348   0010EC  0012               	return		;funcret
  4349   0010EE                     __end_of_I2C_DO_TX:
  4350                           	callstack 0
  4351                           
  4352 ;; *************** function _I2C_DO_SEND_ADR_WRITE *****************
  4353 ;; Defined at:
  4354 ;;		line 349 in file "mcc_generated_files/i2c_master.c"
  4355 ;; Parameters:    Size  Location     Type
  4356 ;;		None
  4357 ;; Auto vars:     Size  Location     Type
  4358 ;;		None
  4359 ;; Return value:  Size  Location     Type
  4360 ;;                  1    wreg      enum E3134
  4361 ;; Registers used:
  4362 ;;		wreg, status,2, cstack
  4363 ;; Tracked objects:
  4364 ;;		On entry : 0/0
  4365 ;;		On exit  : 0/0
  4366 ;;		Unchanged: 0/0
  4367 ;; Data sizes:     COMRAM   BANK0   BANK1   BANK2   BANK3   BANK4   BANK5   BANK6   BANK7   BANK8   BANK9  BANK10  BANK1
      +1  BANK12  BANK13  BANK14  BANK15
  4368 ;;      Params:         0       0       0       0       0       0       0       0       0       0       0       0       
      +0       0       0       0       0
  4369 ;;      Locals:         0       0       0       0       0       0       0       0       0       0       0       0       
      +0       0       0       0       0
  4370 ;;      Temps:          0       0       0       0       0       0       0       0       0       0       0       0       
      +0       0       0       0       0
  4371 ;;      Totals:         0       0       0       0       0       0       0       0       0       0       0       0       
      +0       0       0       0       0
  4372 ;;Total ram usage:        0 bytes
  4373 ;; Hardware stack levels used: 1
  4374 ;; Hardware stack levels required when called: 1
  4375 ;; This function calls:
  4376 ;;		_I2C_MasterSendTxData
  4377 ;; This function is called by:
  4378 ;;		_I2C_MasterFsm
  4379 ;; This function uses a non-reentrant model
  4380 ;;
  4381                           
  4382                           	psect	text51
  4383   001B00                     __ptext51:
  4384                           	callstack 0
  4385   001B00                     _I2C_DO_SEND_ADR_WRITE:
  4386                           	callstack 21
  4387   001B00                     
  4388                           ;mcc_generated_files/i2c_master.c: 351:     I2C_Status.addressNackCheck = 1;
  4389   001B00  8024               	bsf	(_I2C_Status+35)^0,0,c
  4390   001B02                     
  4391                           ;mcc_generated_files/i2c_master.c: 352:     I2C_MasterSendTxData((uint8_t) (I2C_Status.a
      +                          ddress));
  4392   001B02  501D               	movf	(_I2C_Status+28)^0,w,c
  4393   001B04  ECD2  F00D         	call	_I2C_MasterSendTxData
  4394   001B08                     
  4395                           ;mcc_generated_files/i2c_master.c: 353:     return I2C_TX;
  4396   001B08  0E03               	movlw	3
  4397   001B0A  0012               	return		;funcret
  4398   001B0C                     __end_of_I2C_DO_SEND_ADR_WRITE:
  4399                           	callstack 0
  4400                           
  4401 ;; *************** function _I2C_DO_SEND_ADR_READ *****************
  4402 ;; Defined at:
  4403 ;;		line 342 in file "mcc_generated_files/i2c_master.c"
  4404 ;; Parameters:    Size  Location     Type
  4405 ;;		None
  4406 ;; Auto vars:     Size  Location     Type
  4407 ;;		None
  4408 ;; Return value:  Size  Location     Type
  4409 ;;                  1    wreg      enum E3134
  4410 ;; Registers used:
  4411 ;;		wreg, status,2, status,0, cstack
  4412 ;; Tracked objects:
  4413 ;;		On entry : 0/0
  4414 ;;		On exit  : 0/0
  4415 ;;		Unchanged: 0/0
  4416 ;; Data sizes:     COMRAM   BANK0   BANK1   BANK2   BANK3   BANK4   BANK5   BANK6   BANK7   BANK8   BANK9  BANK10  BANK1
      +1  BANK12  BANK13  BANK14  BANK15
  4417 ;;      Params:         0       0       0       0       0       0       0       0       0       0       0       0       
      +0       0       0       0       0
  4418 ;;      Locals:         0       0       0       0       0       0       0       0       0       0       0       0       
      +0       0       0       0       0
  4419 ;;      Temps:          0       0       0       0       0       0       0       0       0       0       0       0       
      +0       0       0       0       0
  4420 ;;      Totals:         0       0       0       0       0       0       0       0       0       0       0       0       
      +0       0       0       0       0
  4421 ;;Total ram usage:        0 bytes
  4422 ;; Hardware stack levels used: 1
  4423 ;; Hardware stack levels required when called: 1
  4424 ;; This function calls:
  4425 ;;		_I2C_MasterSendTxData
  4426 ;; This function is called by:
  4427 ;;		_I2C_MasterFsm
  4428 ;; This function uses a non-reentrant model
  4429 ;;
  4430                           
  4431                           	psect	text52
  4432   001AF2                     __ptext52:
  4433                           	callstack 0
  4434   001AF2                     _I2C_DO_SEND_ADR_READ:
  4435                           	callstack 21
  4436   001AF2                     
  4437                           ;mcc_generated_files/i2c_master.c: 344:     I2C_Status.addressNackCheck = 1;
  4438   001AF2  8024               	bsf	(_I2C_Status+35)^0,0,c
  4439   001AF4                     
  4440                           ;mcc_generated_files/i2c_master.c: 345:     I2C_MasterSendTxData((uint8_t) (I2C_Status.a
      +                          ddress | 1));
  4441   001AF4  501D               	movf	(_I2C_Status+28)^0,w,c
  4442   001AF6  0901               	iorlw	1
  4443   001AF8  ECD2  F00D         	call	_I2C_MasterSendTxData
  4444   001AFC                     
  4445                           ;mcc_generated_files/i2c_master.c: 346:     return I2C_RCEN;
  4446   001AFC  0E05               	movlw	5
  4447   001AFE  0012               	return		;funcret
  4448   001B00                     __end_of_I2C_DO_SEND_ADR_READ:
  4449                           	callstack 0
  4450                           
  4451 ;; *************** function _I2C_DO_IDLE *****************
  4452 ;; Defined at:
  4453 ;;		line 335 in file "mcc_generated_files/i2c_master.c"
  4454 ;; Parameters:    Size  Location     Type
  4455 ;;		None
  4456 ;; Auto vars:     Size  Location     Type
  4457 ;;		None
  4458 ;; Return value:  Size  Location     Type
  4459 ;;                  1    wreg      enum E3134
  4460 ;; Registers used:
  4461 ;;		wreg, status,2
  4462 ;; Tracked objects:
  4463 ;;		On entry : 0/0
  4464 ;;		On exit  : 0/0
  4465 ;;		Unchanged: 0/0
  4466 ;; Data sizes:     COMRAM   BANK0   BANK1   BANK2   BANK3   BANK4   BANK5   BANK6   BANK7   BANK8   BANK9  BANK10  BANK1
      +1  BANK12  BANK13  BANK14  BANK15
  4467 ;;      Params:         0       0       0       0       0       0       0       0       0       0       0       0       
      +0       0       0       0       0
  4468 ;;      Locals:         0       0       0       0       0       0       0       0       0       0       0       0       
      +0       0       0       0       0
  4469 ;;      Temps:          0       0       0       0       0       0       0       0       0       0       0       0       
      +0       0       0       0       0
  4470 ;;      Totals:         0       0       0       0       0       0       0       0       0       0       0       0       
      +0       0       0       0       0
  4471 ;;Total ram usage:        0 bytes
  4472 ;; Hardware stack levels used: 1
  4473 ;; This function calls:
  4474 ;;		Nothing
  4475 ;; This function is called by:
  4476 ;;		_I2C_MasterFsm
  4477 ;; This function uses a non-reentrant model
  4478 ;;
  4479                           
  4480                           	psect	text53
  4481   001B52                     __ptext53:
  4482                           	callstack 0
  4483   001B52                     _I2C_DO_IDLE:
  4484                           	callstack 22
  4485   001B52                     
  4486                           ;mcc_generated_files/i2c_master.c: 337:     I2C_Status.busy = 0;
  4487   001B52  9224               	bcf	(_I2C_Status+35)^0,1,c
  4488   001B54                     
  4489                           ;mcc_generated_files/i2c_master.c: 338:     I2C_Status.error = I2C_NOERR;
  4490   001B54  0E00               	movlw	0
  4491   001B56  6E23               	movwf	(_I2C_Status+34)^0,c
  4492   001B58                     
  4493                           ;mcc_generated_files/i2c_master.c: 339:     return I2C_RESET;
  4494   001B58  0E0E               	movlw	14
  4495   001B5A  0012               	return		;funcret
  4496   001B5C                     __end_of_I2C_DO_IDLE:
  4497                           	callstack 0
  4498                           
  4499 ;; *************** function _I2C_DO_TX_EMPTY *****************
  4500 ;; Defined at:
  4501 ;;		line 411 in file "mcc_generated_files/i2c_master.c"
  4502 ;; Parameters:    Size  Location     Type
  4503 ;;		None
  4504 ;; Auto vars:     Size  Location     Type
  4505 ;;		None
  4506 ;; Return value:  Size  Location     Type
  4507 ;;                  1    wreg      enum E3134
  4508 ;; Registers used:
  4509 ;;		wreg, fsr2l, fsr2h, status,2, status,0, pcl, pclath, pclatu, tosl, prodl, prodh, cstack
  4510 ;; Tracked objects:
  4511 ;;		On entry : 0/0
  4512 ;;		On exit  : 0/0
  4513 ;;		Unchanged: 0/0
  4514 ;; Data sizes:     COMRAM   BANK0   BANK1   BANK2   BANK3   BANK4   BANK5   BANK6   BANK7   BANK8   BANK9  BANK10  BANK1
      +1  BANK12  BANK13  BANK14  BANK15
  4515 ;;      Params:         0       0       0       0       0       0       0       0       0       0       0       0       
      +0       0       0       0       0
  4516 ;;      Locals:         0       0       0       0       0       0       0       0       0       0       0       0       
      +0       0       0       0       0
  4517 ;;      Temps:          2       0       0       0       0       0       0       0       0       0       0       0       
      +0       0       0       0       0
  4518 ;;      Totals:         2       0       0       0       0       0       0       0       0       0       0       0       
      +0       0       0       0       0
  4519 ;;Total ram usage:        2 bytes
  4520 ;; Hardware stack levels used: 1
  4521 ;; Hardware stack levels required when called: 3
  4522 ;; This function calls:
  4523 ;;		NULL
  4524 ;;		_I2C_CallbackReturnReset
  4525 ;;		_I2C_CallbackReturnStop
  4526 ;;		_I2C_DO_SEND_RESTART
  4527 ;;		_I2C_DO_SEND_STOP
  4528 ;;		_I2C_MasterSetIrq
  4529 ;;		_rd1RegCompleteHandler
  4530 ;;		_rd2RegCompleteHandler
  4531 ;;		_rdBlkRegCompleteHandler
  4532 ;;		_wr1RegCompleteHandler
  4533 ;;		_wr2RegCompleteHandler
  4534 ;; This function is called by:
  4535 ;;		_I2C_MasterFsm
  4536 ;; This function uses a non-reentrant model
  4537 ;;
  4538                           
  4539                           	psect	text54
  4540   0013E2                     __ptext54:
  4541                           	callstack 0
  4542   0013E2                     _I2C_DO_TX_EMPTY:
  4543                           	callstack 19
  4544   0013E2                     
  4545                           ;mcc_generated_files/i2c_master.c: 413:     I2C_Status.bufferFree = 1;
  4546   0013E2  8624               	bsf	(_I2C_Status+35)^0,3,c
  4547                           
  4548                           ;mcc_generated_files/i2c_master.c: 414:     switch(I2C_Status.callbackTable[I2C_DATA_COM
      +                          PLETE](I2C_Status.callbackPayload[I2C_DATA_COMPLETE]))
  4549   0013E4  EF01  F00A         	goto	i2l3373
  4550   0013E8                     i2l3357:
  4551                           
  4552                           ;mcc_generated_files/i2c_master.c: 418:             return I2C_DO_SEND_RESTART();
  4553   0013E8  ECC6  F00D         	call	_I2C_DO_SEND_RESTART	;wreg free
  4554   0013EC  EF2D  F00A         	goto	i2l338
  4555   0013F0                     i2l3361:
  4556                           
  4557                           ;mcc_generated_files/i2c_master.c: 420:             I2C_MasterSetIrq();
  4558   0013F0  ECEB  F00D         	call	_I2C_MasterSetIrq	;wreg free
  4559   0013F4                     
  4560                           ;mcc_generated_files/i2c_master.c: 421:             return I2C_TX;
  4561   0013F4  0E03               	movlw	3
  4562   0013F6  EF2D  F00A         	goto	i2l338
  4563   0013FA                     i2l3367:
  4564                           
  4565                           ;mcc_generated_files/i2c_master.c: 424:             return I2C_DO_SEND_STOP();
  4566   0013FA  ECC2  F00D         	call	_I2C_DO_SEND_STOP	;wreg free
  4567   0013FE  EF2D  F00A         	goto	i2l338
  4568   001402                     i2l3373:
  4569   001402  C00D  F03A         	movff	_I2C_Status+12,I2C_CallbackReturnReset@funPtr
  4570   001406  C00E  F03B         	movff	_I2C_Status+13,I2C_CallbackReturnReset@funPtr+1
  4571   00140A  D802               	call	i2u123_48
  4572   00140C  EF11  F00A         	goto	i2u123_49
  4573   001410                     i2u123_48:
  4574   001410  0005               	push	
  4575   001412  6EFA               	movwf	pclath,c
  4576   001414  5001               	movf	_I2C_Status^0,w,c
  4577   001416  6EFD               	movwf	tosl,c
  4578   001418  5002               	movf	(_I2C_Status+1)^0,w,c
  4579   00141A  6EFE               	movwf	tosh,c
  4580   00141C  6AFF               	clrf	tosu,c
  4581   00141E  50FA               	movf	pclath,w,c
  4582   001420  0012               	return		;indir
  4583   001422                     i2u123_49:
  4584   001422  6E3D               	movwf	??_I2C_DO_TX_EMPTY^0,c
  4585   001424  6A3E               	clrf	(??_I2C_DO_TX_EMPTY+1)^0,c
  4586                           
  4587                           ; Switch on 2 bytes has been partitioned into a top level switch of size 1, and 1 sub-sw
      +                          itches
  4588                           ; Switch size 1, requested type "simple"
  4589                           ; Number of cases is 1, Range of values is 0 to 0
  4590                           ; switch strategies available:
  4591                           ; Name         Instructions Cycles
  4592                           ; simple_byte            4     3 (average)
  4593                           ;	Chosen strategy is simple_byte
  4594   001426  503E               	movf	(??_I2C_DO_TX_EMPTY+1)^0,w,c
  4595   001428  0A00               	xorlw	0	; case 0
  4596   00142A  B4D8               	btfsc	status,2,c
  4597   00142C  EF1A  F00A         	goto	i2l3791
  4598   001430  EFFD  F009         	goto	i2l3367
  4599   001434                     i2l3791:
  4600                           
  4601                           ; Switch size 1, requested type "simple"
  4602                           ; Number of cases is 4, Range of values is 1 to 4
  4603                           ; switch strategies available:
  4604                           ; Name         Instructions Cycles
  4605                           ; simple_byte           13     7 (average)
  4606                           ;	Chosen strategy is simple_byte
  4607   001434  503D               	movf	??_I2C_DO_TX_EMPTY^0,w,c
  4608   001436  0A01               	xorlw	1	; case 1
  4609   001438  B4D8               	btfsc	status,2,c
  4610   00143A  EFFD  F009         	goto	i2l3367
  4611   00143E  0A03               	xorlw	3	; case 2
  4612   001440  B4D8               	btfsc	status,2,c
  4613   001442  EFF4  F009         	goto	i2l3357
  4614   001446  0A01               	xorlw	1	; case 3
  4615   001448  B4D8               	btfsc	status,2,c
  4616   00144A  EFF4  F009         	goto	i2l3357
  4617   00144E  0A07               	xorlw	7	; case 4
  4618   001450  B4D8               	btfsc	status,2,c
  4619   001452  EFF8  F009         	goto	i2l3361
  4620   001456  EFFD  F009         	goto	i2l3367
  4621   00145A                     i2l338:
  4622   00145A  0012               	return		;funcret
  4623   00145C                     __end_of_I2C_DO_TX_EMPTY:
  4624                           	callstack 0
  4625                           
  4626 ;; *************** function _I2C_MasterSetIrq *****************
  4627 ;; Defined at:
  4628 ;;		line 647 in file "mcc_generated_files/i2c_master.c"
  4629 ;; Parameters:    Size  Location     Type
  4630 ;;		None
  4631 ;; Auto vars:     Size  Location     Type
  4632 ;;		None
  4633 ;; Return value:  Size  Location     Type
  4634 ;;                  1    wreg      void 
  4635 ;; Registers used:
  4636 ;;		None
  4637 ;; Tracked objects:
  4638 ;;		On entry : 0/0
  4639 ;;		On exit  : 0/0
  4640 ;;		Unchanged: 0/0
  4641 ;; Data sizes:     COMRAM   BANK0   BANK1   BANK2   BANK3   BANK4   BANK5   BANK6   BANK7   BANK8   BANK9  BANK10  BANK1
      +1  BANK12  BANK13  BANK14  BANK15
  4642 ;;      Params:         0       0       0       0       0       0       0       0       0       0       0       0       
      +0       0       0       0       0
  4643 ;;      Locals:         0       0       0       0       0       0       0       0       0       0       0       0       
      +0       0       0       0       0
  4644 ;;      Temps:          0       0       0       0       0       0       0       0       0       0       0       0       
      +0       0       0       0       0
  4645 ;;      Totals:         0       0       0       0       0       0       0       0       0       0       0       0       
      +0       0       0       0       0
  4646 ;;Total ram usage:        0 bytes
  4647 ;; Hardware stack levels used: 1
  4648 ;; This function calls:
  4649 ;;		Nothing
  4650 ;; This function is called by:
  4651 ;;		_I2C_DO_TX_EMPTY
  4652 ;; This function uses a non-reentrant model
  4653 ;;
  4654                           
  4655                           	psect	text55
  4656   001BD6                     __ptext55:
  4657                           	callstack 0
  4658   001BD6                     _I2C_MasterSetIrq:
  4659                           	callstack 21
  4660   001BD6                     
  4661                           ;mcc_generated_files/i2c_master.c: 649:     PIR1bits.SSPIF = 1;
  4662   001BD6  869E               	bsf	158,3,c	;volatile
  4663   001BD8  0012               	return		;funcret
  4664   001BDA                     __end_of_I2C_MasterSetIrq:
  4665                           	callstack 0
  4666                           
  4667 ;; *************** function _I2C_MasterIsNack *****************
  4668 ;; Defined at:
  4669 ;;		line 599 in file "mcc_generated_files/i2c_master.c"
  4670 ;; Parameters:    Size  Location     Type
  4671 ;;		None
  4672 ;; Auto vars:     Size  Location     Type
  4673 ;;		None
  4674 ;; Return value:  Size  Location     Type
  4675 ;;                  1    wreg      _Bool 
  4676 ;; Registers used:
  4677 ;;		wreg
  4678 ;; Tracked objects:
  4679 ;;		On entry : 0/0
  4680 ;;		On exit  : 0/0
  4681 ;;		Unchanged: 0/0
  4682 ;; Data sizes:     COMRAM   BANK0   BANK1   BANK2   BANK3   BANK4   BANK5   BANK6   BANK7   BANK8   BANK9  BANK10  BANK1
      +1  BANK12  BANK13  BANK14  BANK15
  4683 ;;      Params:         0       0       0       0       0       0       0       0       0       0       0       0       
      +0       0       0       0       0
  4684 ;;      Locals:         0       0       0       0       0       0       0       0       0       0       0       0       
      +0       0       0       0       0
  4685 ;;      Temps:          0       0       0       0       0       0       0       0       0       0       0       0       
      +0       0       0       0       0
  4686 ;;      Totals:         0       0       0       0       0       0       0       0       0       0       0       0       
      +0       0       0       0       0
  4687 ;;Total ram usage:        0 bytes
  4688 ;; Hardware stack levels used: 1
  4689 ;; This function calls:
  4690 ;;		Nothing
  4691 ;; This function is called by:
  4692 ;;		_I2C_MasterFsm
  4693 ;;		_I2C_DO_TX
  4694 ;; This function uses a non-reentrant model
  4695 ;;
  4696                           
  4697                           	psect	text56
  4698   001ADE                     __ptext56:
  4699                           	callstack 0
  4700   001ADE                     _I2C_MasterIsNack:
  4701                           	callstack 22
  4702   001ADE                     
  4703                           ;mcc_generated_files/i2c_master.c: 601:     return SSPCON2bits.ACKSTAT;
  4704   001ADE  BCC5               	btfsc	197,6,c	;volatile
  4705   001AE0  EF74  F00D         	goto	i2u114_41
  4706   001AE4  EF77  F00D         	goto	i2u114_40
  4707   001AE8                     i2u114_41:
  4708   001AE8  0E01               	movlw	1
  4709   001AEA  EF78  F00D         	goto	i2u114_46
  4710   001AEE                     i2u114_40:
  4711   001AEE  0E00               	movlw	0
  4712   001AF0                     i2u114_46:
  4713   001AF0  0012               	return		;funcret
  4714   001AF2                     __end_of_I2C_MasterIsNack:
  4715                           	callstack 0
  4716                           
  4717 ;; *************** function _I2C_MasterSendTxData *****************
  4718 ;; Defined at:
  4719 ;;		line 569 in file "mcc_generated_files/i2c_master.c"
  4720 ;; Parameters:    Size  Location     Type
  4721 ;;  data            1    wreg     unsigned char 
  4722 ;; Auto vars:     Size  Location     Type
  4723 ;;  data            1    0[COMRAM] unsigned char 
  4724 ;; Return value:  Size  Location     Type
  4725 ;;                  1    wreg      void 
  4726 ;; Registers used:
  4727 ;;		wreg
  4728 ;; Tracked objects:
  4729 ;;		On entry : 0/0
  4730 ;;		On exit  : 0/0
  4731 ;;		Unchanged: 0/0
  4732 ;; Data sizes:     COMRAM   BANK0   BANK1   BANK2   BANK3   BANK4   BANK5   BANK6   BANK7   BANK8   BANK9  BANK10  BANK1
      +1  BANK12  BANK13  BANK14  BANK15
  4733 ;;      Params:         0       0       0       0       0       0       0       0       0       0       0       0       
      +0       0       0       0       0
  4734 ;;      Locals:         1       0       0       0       0       0       0       0       0       0       0       0       
      +0       0       0       0       0
  4735 ;;      Temps:          0       0       0       0       0       0       0       0       0       0       0       0       
      +0       0       0       0       0
  4736 ;;      Totals:         1       0       0       0       0       0       0       0       0       0       0       0       
      +0       0       0       0       0
  4737 ;;Total ram usage:        1 bytes
  4738 ;; Hardware stack levels used: 1
  4739 ;; This function calls:
  4740 ;;		Nothing
  4741 ;; This function is called by:
  4742 ;;		_I2C_DO_SEND_ADR_READ
  4743 ;;		_I2C_DO_SEND_ADR_WRITE
  4744 ;;		_I2C_DO_TX
  4745 ;; This function uses a non-reentrant model
  4746 ;;
  4747                           
  4748                           	psect	text57
  4749   001BA4                     __ptext57:
  4750                           	callstack 0
  4751   001BA4                     _I2C_MasterSendTxData:
  4752                           	callstack 21
  4753                           
  4754                           ;incstack = 0
  4755                           ;I2C_MasterSendTxData@data stored from wreg
  4756   001BA4  6E31               	movwf	I2C_MasterSendTxData@data^0,c
  4757   001BA6                     
  4758                           ;mcc_generated_files/i2c_master.c: 569: static __attribute__((inline)) void I2C_MasterSe
      +                          ndTxData(uint8_t data);mcc_generated_files/i2c_master.c: 570: {;mcc_generated_files/i2c_
      +                          master.c: 571:     SSPBUF = data;
  4759   001BA6  C031  FFC9         	movff	I2C_MasterSendTxData@data,4041	;volatile
  4760   001BAA  0012               	return		;funcret
  4761   001BAC                     __end_of_I2C_MasterSendTxData:
  4762                           	callstack 0
  4763                           
  4764 ;; *************** function _I2C_MasterSendAck *****************
  4765 ;; Defined at:
  4766 ;;		line 604 in file "mcc_generated_files/i2c_master.c"
  4767 ;; Parameters:    Size  Location     Type
  4768 ;;		None
  4769 ;; Auto vars:     Size  Location     Type
  4770 ;;		None
  4771 ;; Return value:  Size  Location     Type
  4772 ;;                  1    wreg      void 
  4773 ;; Registers used:
  4774 ;;		None
  4775 ;; Tracked objects:
  4776 ;;		On entry : 0/0
  4777 ;;		On exit  : 0/0
  4778 ;;		Unchanged: 0/0
  4779 ;; Data sizes:     COMRAM   BANK0   BANK1   BANK2   BANK3   BANK4   BANK5   BANK6   BANK7   BANK8   BANK9  BANK10  BANK1
      +1  BANK12  BANK13  BANK14  BANK15
  4780 ;;      Params:         0       0       0       0       0       0       0       0       0       0       0       0       
      +0       0       0       0       0
  4781 ;;      Locals:         0       0       0       0       0       0       0       0       0       0       0       0       
      +0       0       0       0       0
  4782 ;;      Temps:          0       0       0       0       0       0       0       0       0       0       0       0       
      +0       0       0       0       0
  4783 ;;      Totals:         0       0       0       0       0       0       0       0       0       0       0       0       
      +0       0       0       0       0
  4784 ;;Total ram usage:        0 bytes
  4785 ;; Hardware stack levels used: 1
  4786 ;; This function calls:
  4787 ;;		Nothing
  4788 ;; This function is called by:
  4789 ;;		_I2C_DO_RX
  4790 ;;		_I2C_DO_RX_ACK
  4791 ;; This function uses a non-reentrant model
  4792 ;;
  4793                           
  4794                           	psect	text58
  4795   001BB2                     __ptext58:
  4796                           	callstack 0
  4797   001BB2                     _I2C_MasterSendAck:
  4798                           	callstack 21
  4799   001BB2                     
  4800                           ;mcc_generated_files/i2c_master.c: 606:     SSPCON2bits.ACKDT = 0;
  4801   001BB2  9AC5               	bcf	197,5,c	;volatile
  4802                           
  4803                           ;mcc_generated_files/i2c_master.c: 607:     SSPCON2bits.ACKEN = 1;
  4804   001BB4  88C5               	bsf	197,4,c	;volatile
  4805   001BB6  0012               	return		;funcret
  4806   001BB8                     __end_of_I2C_MasterSendAck:
  4807                           	callstack 0
  4808                           
  4809 ;; *************** function _I2C_MasterGetRxData *****************
  4810 ;; Defined at:
  4811 ;;		line 564 in file "mcc_generated_files/i2c_master.c"
  4812 ;; Parameters:    Size  Location     Type
  4813 ;;		None
  4814 ;; Auto vars:     Size  Location     Type
  4815 ;;		None
  4816 ;; Return value:  Size  Location     Type
  4817 ;;                  1    wreg      unsigned char 
  4818 ;; Registers used:
  4819 ;;		wreg, status,2
  4820 ;; Tracked objects:
  4821 ;;		On entry : 0/0
  4822 ;;		On exit  : 0/0
  4823 ;;		Unchanged: 0/0
  4824 ;; Data sizes:     COMRAM   BANK0   BANK1   BANK2   BANK3   BANK4   BANK5   BANK6   BANK7   BANK8   BANK9  BANK10  BANK1
      +1  BANK12  BANK13  BANK14  BANK15
  4825 ;;      Params:         0       0       0       0       0       0       0       0       0       0       0       0       
      +0       0       0       0       0
  4826 ;;      Locals:         0       0       0       0       0       0       0       0       0       0       0       0       
      +0       0       0       0       0
  4827 ;;      Temps:          0       0       0       0       0       0       0       0       0       0       0       0       
      +0       0       0       0       0
  4828 ;;      Totals:         0       0       0       0       0       0       0       0       0       0       0       0       
      +0       0       0       0       0
  4829 ;;Total ram usage:        0 bytes
  4830 ;; Hardware stack levels used: 1
  4831 ;; This function calls:
  4832 ;;		Nothing
  4833 ;; This function is called by:
  4834 ;;		_I2C_DO_RX
  4835 ;; This function uses a non-reentrant model
  4836 ;;
  4837                           
  4838                           	psect	text59
  4839   001BDA                     __ptext59:
  4840                           	callstack 0
  4841   001BDA                     _I2C_MasterGetRxData:
  4842                           	callstack 21
  4843   001BDA                     
  4844                           ;mcc_generated_files/i2c_master.c: 566:     return SSPBUF;
  4845   001BDA  50C9               	movf	201,w,c	;volatile
  4846   001BDC  0012               	return		;funcret
  4847   001BDE                     __end_of_I2C_MasterGetRxData:
  4848                           	callstack 0
  4849                           
  4850 ;; *************** function _I2C_MasterSendNack *****************
  4851 ;; Defined at:
  4852 ;;		line 610 in file "mcc_generated_files/i2c_master.c"
  4853 ;; Parameters:    Size  Location     Type
  4854 ;;		None
  4855 ;; Auto vars:     Size  Location     Type
  4856 ;;		None
  4857 ;; Return value:  Size  Location     Type
  4858 ;;                  1    wreg      void 
  4859 ;; Registers used:
  4860 ;;		None
  4861 ;; Tracked objects:
  4862 ;;		On entry : 0/0
  4863 ;;		On exit  : 0/0
  4864 ;;		Unchanged: 0/0
  4865 ;; Data sizes:     COMRAM   BANK0   BANK1   BANK2   BANK3   BANK4   BANK5   BANK6   BANK7   BANK8   BANK9  BANK10  BANK1
      +1  BANK12  BANK13  BANK14  BANK15
  4866 ;;      Params:         0       0       0       0       0       0       0       0       0       0       0       0       
      +0       0       0       0       0
  4867 ;;      Locals:         0       0       0       0       0       0       0       0       0       0       0       0       
      +0       0       0       0       0
  4868 ;;      Temps:          0       0       0       0       0       0       0       0       0       0       0       0       
      +0       0       0       0       0
  4869 ;;      Totals:         0       0       0       0       0       0       0       0       0       0       0       0       
      +0       0       0       0       0
  4870 ;;Total ram usage:        0 bytes
  4871 ;; Hardware stack levels used: 1
  4872 ;; This function calls:
  4873 ;;		Nothing
  4874 ;; This function is called by:
  4875 ;;		_I2C_DO_RX_NACK_STOP
  4876 ;;		_I2C_DO_RX_NACK_RESTART
  4877 ;; This function uses a non-reentrant model
  4878 ;;
  4879                           
  4880                           	psect	text60
  4881   001BB8                     __ptext60:
  4882                           	callstack 0
  4883   001BB8                     _I2C_MasterSendNack:
  4884                           	callstack 21
  4885   001BB8                     
  4886                           ;mcc_generated_files/i2c_master.c: 612:     SSPCON2bits.ACKDT = 1;
  4887   001BB8  8AC5               	bsf	197,5,c	;volatile
  4888                           
  4889                           ;mcc_generated_files/i2c_master.c: 613:     SSPCON2bits.ACKEN = 1;
  4890   001BBA  88C5               	bsf	197,4,c	;volatile
  4891   001BBC  0012               	return		;funcret
  4892   001BBE                     __end_of_I2C_MasterSendNack:
  4893                           	callstack 0
  4894                           
  4895 ;; *************** function _I2C_MasterStartRx *****************
  4896 ;; Defined at:
  4897 ;;		line 584 in file "mcc_generated_files/i2c_master.c"
  4898 ;; Parameters:    Size  Location     Type
  4899 ;;		None
  4900 ;; Auto vars:     Size  Location     Type
  4901 ;;		None
  4902 ;; Return value:  Size  Location     Type
  4903 ;;                  1    wreg      void 
  4904 ;; Registers used:
  4905 ;;		None
  4906 ;; Tracked objects:
  4907 ;;		On entry : 0/0
  4908 ;;		On exit  : 0/0
  4909 ;;		Unchanged: 0/0
  4910 ;; Data sizes:     COMRAM   BANK0   BANK1   BANK2   BANK3   BANK4   BANK5   BANK6   BANK7   BANK8   BANK9  BANK10  BANK1
      +1  BANK12  BANK13  BANK14  BANK15
  4911 ;;      Params:         0       0       0       0       0       0       0       0       0       0       0       0       
      +0       0       0       0       0
  4912 ;;      Locals:         0       0       0       0       0       0       0       0       0       0       0       0       
      +0       0       0       0       0
  4913 ;;      Temps:          0       0       0       0       0       0       0       0       0       0       0       0       
      +0       0       0       0       0
  4914 ;;      Totals:         0       0       0       0       0       0       0       0       0       0       0       0       
      +0       0       0       0       0
  4915 ;;Total ram usage:        0 bytes
  4916 ;; Hardware stack levels used: 1
  4917 ;; This function calls:
  4918 ;;		Nothing
  4919 ;; This function is called by:
  4920 ;;		_I2C_DO_RCEN
  4921 ;; This function uses a non-reentrant model
  4922 ;;
  4923                           
  4924                           	psect	text61
  4925   001BDE                     __ptext61:
  4926                           	callstack 0
  4927   001BDE                     _I2C_MasterStartRx:
  4928                           	callstack 21
  4929   001BDE                     
  4930                           ;mcc_generated_files/i2c_master.c: 586:     SSPCON2bits.RCEN = 1;
  4931   001BDE  86C5               	bsf	197,3,c	;volatile
  4932   001BE0  0012               	return		;funcret
  4933   001BE2                     __end_of_I2C_MasterStartRx:
  4934                           	callstack 0
  4935                           
  4936 ;; *************** function _I2C_CallbackReturnReset *****************
  4937 ;; Defined at:
  4938 ;;		line 526 in file "mcc_generated_files/i2c_master.c"
  4939 ;; Parameters:    Size  Location     Type
  4940 ;;  funPtr          2    9[COMRAM] PTR void 
  4941 ;;		 -> I2C_ReadDataBlock@bufferBlock(4), I2C_Write2ByteRegister@data(2), I2C_Write1ByteRegister@data(1), I2C_Read2ByteR
      +egister@returnValue(2), 
  4942 ;;		 -> NULL(0), I2C_Read1ByteRegister@returnValue(1), 
  4943 ;; Auto vars:     Size  Location     Type
  4944 ;;		None
  4945 ;; Return value:  Size  Location     Type
  4946 ;;                  1    wreg      enum E363
  4947 ;; Registers used:
  4948 ;;		wreg
  4949 ;; Tracked objects:
  4950 ;;		On entry : 0/0
  4951 ;;		On exit  : 0/0
  4952 ;;		Unchanged: 0/0
  4953 ;; Data sizes:     COMRAM   BANK0   BANK1   BANK2   BANK3   BANK4   BANK5   BANK6   BANK7   BANK8   BANK9  BANK10  BANK1
      +1  BANK12  BANK13  BANK14  BANK15
  4954 ;;      Params:         2       0       0       0       0       0       0       0       0       0       0       0       
      +0       0       0       0       0
  4955 ;;      Locals:         0       0       0       0       0       0       0       0       0       0       0       0       
      +0       0       0       0       0
  4956 ;;      Temps:          0       0       0       0       0       0       0       0       0       0       0       0       
      +0       0       0       0       0
  4957 ;;      Totals:         2       0       0       0       0       0       0       0       0       0       0       0       
      +0       0       0       0       0
  4958 ;;Total ram usage:        2 bytes
  4959 ;; Hardware stack levels used: 1
  4960 ;; This function calls:
  4961 ;;		Nothing
  4962 ;; This function is called by:
  4963 ;;		_I2C_Open
  4964 ;;		_I2C_DO_TX
  4965 ;;		_I2C_DO_RX
  4966 ;;		_I2C_DO_TX_EMPTY
  4967 ;;		_I2C_DO_ADDRESS_NACK
  4968 ;;		_I2C_DO_RX_EMPTY
  4969 ;; This function uses a non-reentrant model
  4970 ;;
  4971                           
  4972                           	psect	text62
  4973   001BE2                     __ptext62:
  4974                           	callstack 0
  4975   001BE2                     _I2C_CallbackReturnReset:
  4976                           	callstack 21
  4977   001BE2                     
  4978                           ;mcc_generated_files/i2c_master.c: 526: i2c_operations_t I2C_CallbackReturnReset(void *f
      +                          unPtr);mcc_generated_files/i2c_master.c: 527: {;mcc_generated_files/i2c_master.c: 528:  
      +                             return I2C_RESET_LINK;
  4979   001BE2  0E05               	movlw	5
  4980   001BE4  0012               	return		;funcret
  4981   001BE6                     __end_of_I2C_CallbackReturnReset:
  4982                           	callstack 0
  4983                           
  4984 ;; *************** function _I2C_CallbackReturnStop *****************
  4985 ;; Defined at:
  4986 ;;		line 521 in file "mcc_generated_files/i2c_master.c"
  4987 ;; Parameters:    Size  Location     Type
  4988 ;;  funPtr          2    9[COMRAM] PTR void 
  4989 ;;		 -> I2C_ReadDataBlock@bufferBlock(4), I2C_Write2ByteRegister@data(2), I2C_Write1ByteRegister@data(1), I2C_Read2ByteR
      +egister@returnValue(2), 
  4990 ;;		 -> NULL(0), I2C_Read1ByteRegister@returnValue(1), 
  4991 ;; Auto vars:     Size  Location     Type
  4992 ;;		None
  4993 ;; Return value:  Size  Location     Type
  4994 ;;                  1    wreg      enum E363
  4995 ;; Registers used:
  4996 ;;		wreg
  4997 ;; Tracked objects:
  4998 ;;		On entry : 0/0
  4999 ;;		On exit  : 0/0
  5000 ;;		Unchanged: 0/0
  5001 ;; Data sizes:     COMRAM   BANK0   BANK1   BANK2   BANK3   BANK4   BANK5   BANK6   BANK7   BANK8   BANK9  BANK10  BANK1
      +1  BANK12  BANK13  BANK14  BANK15
  5002 ;;      Params:         2       0       0       0       0       0       0       0       0       0       0       0       
      +0       0       0       0       0
  5003 ;;      Locals:         0       0       0       0       0       0       0       0       0       0       0       0       
      +0       0       0       0       0
  5004 ;;      Temps:          0       0       0       0       0       0       0       0       0       0       0       0       
      +0       0       0       0       0
  5005 ;;      Totals:         2       0       0       0       0       0       0       0       0       0       0       0       
      +0       0       0       0       0
  5006 ;;Total ram usage:        2 bytes
  5007 ;; Hardware stack levels used: 1
  5008 ;; This function calls:
  5009 ;;		Nothing
  5010 ;; This function is called by:
  5011 ;;		_I2C_Open
  5012 ;;		_I2C_SetCallback
  5013 ;;		i2_I2C_SetCallback
  5014 ;;		_I2C_DO_TX
  5015 ;;		_I2C_DO_RX
  5016 ;;		_I2C_DO_TX_EMPTY
  5017 ;;		_I2C_DO_ADDRESS_NACK
  5018 ;;		_I2C_DO_RX_EMPTY
  5019 ;; This function uses a non-reentrant model
  5020 ;;
  5021                           
  5022                           	psect	text63
  5023   001BE6                     __ptext63:
  5024                           	callstack 0
  5025   001BE6                     _I2C_CallbackReturnStop:
  5026                           	callstack 21
  5027   001BE6                     
  5028                           ;mcc_generated_files/i2c_master.c: 521: i2c_operations_t I2C_CallbackReturnStop(void *fu
      +                          nPtr);mcc_generated_files/i2c_master.c: 522: {;mcc_generated_files/i2c_master.c: 523:   
      +                            return I2C_STOP;
  5029   001BE6  0E01               	movlw	1
  5030   001BE8  0012               	return		;funcret
  5031   001BEA                     __end_of_I2C_CallbackReturnStop:
  5032                           	callstack 0
  5033                           
  5034 ;; *************** function _rdBlkRegCompleteHandler *****************
  5035 ;; Defined at:
  5036 ;;		line 170 in file "mcc_generated_files/examples/i2c_master_example.c"
  5037 ;; Parameters:    Size  Location     Type
  5038 ;;  ptr             2    9[COMRAM] PTR void 
  5039 ;;		 -> I2C_ReadDataBlock@bufferBlock(4), I2C_Write2ByteRegister@data(2), I2C_Write1ByteRegister@data(1), I2C_Read2ByteR
      +egister@returnValue(2), 
  5040 ;;		 -> NULL(0), I2C_Read1ByteRegister@returnValue(1), 
  5041 ;; Auto vars:     Size  Location     Type
  5042 ;;		None
  5043 ;; Return value:  Size  Location     Type
  5044 ;;                  1    wreg      enum E363
  5045 ;; Registers used:
  5046 ;;		wreg, fsr2l, fsr2h, status,2, status,0, prodl, prodh, cstack
  5047 ;; Tracked objects:
  5048 ;;		On entry : 0/0
  5049 ;;		On exit  : 0/0
  5050 ;;		Unchanged: 0/0
  5051 ;; Data sizes:     COMRAM   BANK0   BANK1   BANK2   BANK3   BANK4   BANK5   BANK6   BANK7   BANK8   BANK9  BANK10  BANK1
      +1  BANK12  BANK13  BANK14  BANK15
  5052 ;;      Params:         2       0       0       0       0       0       0       0       0       0       0       0       
      +0       0       0       0       0
  5053 ;;      Locals:         0       0       0       0       0       0       0       0       0       0       0       0       
      +0       0       0       0       0
  5054 ;;      Temps:          1       0       0       0       0       0       0       0       0       0       0       0       
      +0       0       0       0       0
  5055 ;;      Totals:         3       0       0       0       0       0       0       0       0       0       0       0       
      +0       0       0       0       0
  5056 ;;Total ram usage:        3 bytes
  5057 ;; Hardware stack levels used: 1
  5058 ;; Hardware stack levels required when called: 2
  5059 ;; This function calls:
  5060 ;;		i2_I2C_SetBuffer
  5061 ;;		i2_I2C_SetDataCompleteCallback
  5062 ;; This function is called by:
  5063 ;;		_I2C_ReadDataBlock
  5064 ;;		_I2C_DO_TX
  5065 ;;		_I2C_DO_RX
  5066 ;;		_I2C_DO_TX_EMPTY
  5067 ;;		_I2C_DO_ADDRESS_NACK
  5068 ;;		_I2C_DO_RX_EMPTY
  5069 ;; This function uses a non-reentrant model
  5070 ;;
  5071                           
  5072                           	psect	text64
  5073   001834                     __ptext64:
  5074                           	callstack 0
  5075   001834                     _rdBlkRegCompleteHandler:
  5076                           	callstack 19
  5077   001834                     
  5078                           ;mcc_generated_files/examples/i2c_master_example.c: 170: static i2c_operations_t rdBlkRe
      +                          gCompleteHandler(void *ptr);mcc_generated_files/examples/i2c_master_example.c: 171: {;mc
      +                          c_generated_files/examples/i2c_master_example.c: 172:     I2C_SetBuffer(((i2c_buffer_t *
      +                          )ptr)->data,((i2c_buffer_t*)ptr)->len);
  5079   001834  EE20 F002          	lfsr	2,2
  5080   001838  503A               	movf	rdBlkRegCompleteHandler@ptr^0,w,c
  5081   00183A  26D9               	addwf	fsr2l,f,c
  5082   00183C  503B               	movf	(rdBlkRegCompleteHandler@ptr+1)^0,w,c
  5083   00183E  22DA               	addwfc	fsr2h,f,c
  5084   001840  50DF               	movf	indf2,w,c
  5085   001842  6E3C               	movwf	??_rdBlkRegCompleteHandler^0,c
  5086   001844  C03C  F031         	movff	??_rdBlkRegCompleteHandler,i2I2C_SetBuffer@buffer
  5087   001848  6A32               	clrf	(i2I2C_SetBuffer@buffer+1)^0,c
  5088   00184A  C03A  FFD9         	movff	rdBlkRegCompleteHandler@ptr,fsr2l
  5089   00184E  C03B  FFDA         	movff	rdBlkRegCompleteHandler@ptr+1,fsr2h
  5090   001852  CFDE F033          	movff	postinc2,i2I2C_SetBuffer@bufferSize
  5091   001856  CFDD F034          	movff	postdec2,i2I2C_SetBuffer@bufferSize+1
  5092   00185A  ECF5  F00C         	call	i2_I2C_SetBuffer	;wreg free
  5093   00185E                     
  5094                           ;mcc_generated_files/examples/i2c_master_example.c: 173:     I2C_SetDataCompleteCallback
      +                          (((void*)0),((void*)0));
  5095   00185E  0E00               	movlw	0
  5096   001860  6E36               	movwf	i2I2C_SetDataCompleteCallback@cb^0,c
  5097   001862  0E00               	movlw	0
  5098   001864  6E37               	movwf	(i2I2C_SetDataCompleteCallback@cb+1)^0,c
  5099   001866  0E00               	movlw	0
  5100   001868  6E38               	movwf	i2I2C_SetDataCompleteCallback@ptr^0,c
  5101   00186A  0E00               	movlw	0
  5102   00186C  6E39               	movwf	(i2I2C_SetDataCompleteCallback@ptr+1)^0,c
  5103   00186E  EC43  F00D         	call	i2_I2C_SetDataCompleteCallback	;wreg free
  5104   001872                     
  5105                           ;mcc_generated_files/examples/i2c_master_example.c: 174:     return I2C_RESTART_READ;
  5106   001872  0E02               	movlw	2
  5107   001874  0012               	return		;funcret
  5108   001876                     __end_of_rdBlkRegCompleteHandler:
  5109                           	callstack 0
  5110                           
  5111 ;; *************** function _wr1RegCompleteHandler *****************
  5112 ;; Defined at:
  5113 ;;		line 156 in file "mcc_generated_files/examples/i2c_master_example.c"
  5114 ;; Parameters:    Size  Location     Type
  5115 ;;  ptr             2    9[COMRAM] PTR void 
  5116 ;;		 -> I2C_ReadDataBlock@bufferBlock(4), I2C_Write2ByteRegister@data(2), I2C_Write1ByteRegister@data(1), I2C_Read2ByteR
      +egister@returnValue(2), 
  5117 ;;		 -> NULL(0), I2C_Read1ByteRegister@returnValue(1), 
  5118 ;; Auto vars:     Size  Location     Type
  5119 ;;		None
  5120 ;; Return value:  Size  Location     Type
  5121 ;;                  1    wreg      enum E363
  5122 ;; Registers used:
  5123 ;;		wreg, fsr2l, fsr2h, status,2, status,0, prodl, prodh, cstack
  5124 ;; Tracked objects:
  5125 ;;		On entry : 0/0
  5126 ;;		On exit  : 0/0
  5127 ;;		Unchanged: 0/0
  5128 ;; Data sizes:     COMRAM   BANK0   BANK1   BANK2   BANK3   BANK4   BANK5   BANK6   BANK7   BANK8   BANK9  BANK10  BANK1
      +1  BANK12  BANK13  BANK14  BANK15
  5129 ;;      Params:         2       0       0       0       0       0       0       0       0       0       0       0       
      +0       0       0       0       0
  5130 ;;      Locals:         0       0       0       0       0       0       0       0       0       0       0       0       
      +0       0       0       0       0
  5131 ;;      Temps:          0       0       0       0       0       0       0       0       0       0       0       0       
      +0       0       0       0       0
  5132 ;;      Totals:         2       0       0       0       0       0       0       0       0       0       0       0       
      +0       0       0       0       0
  5133 ;;Total ram usage:        2 bytes
  5134 ;; Hardware stack levels used: 1
  5135 ;; Hardware stack levels required when called: 2
  5136 ;; This function calls:
  5137 ;;		i2_I2C_SetBuffer
  5138 ;;		i2_I2C_SetDataCompleteCallback
  5139 ;; This function is called by:
  5140 ;;		_I2C_Write1ByteRegister
  5141 ;;		_I2C_DO_TX
  5142 ;;		_I2C_DO_RX
  5143 ;;		_I2C_DO_TX_EMPTY
  5144 ;;		_I2C_DO_ADDRESS_NACK
  5145 ;;		_I2C_DO_RX_EMPTY
  5146 ;; This function uses a non-reentrant model
  5147 ;;
  5148                           
  5149                           	psect	text65
  5150   0018D4                     __ptext65:
  5151                           	callstack 0
  5152   0018D4                     _wr1RegCompleteHandler:
  5153                           	callstack 19
  5154   0018D4                     
  5155                           ;mcc_generated_files/examples/i2c_master_example.c: 156: static i2c_operations_t wr1RegC
      +                          ompleteHandler(void *ptr);mcc_generated_files/examples/i2c_master_example.c: 157: {;mcc_
      +                          generated_files/examples/i2c_master_example.c: 158:     I2C_SetBuffer(ptr,1);
  5156   0018D4  C03A  F031         	movff	wr1RegCompleteHandler@ptr,i2I2C_SetBuffer@buffer
  5157   0018D8  C03B  F032         	movff	wr1RegCompleteHandler@ptr+1,i2I2C_SetBuffer@buffer+1
  5158   0018DC  0E00               	movlw	0
  5159   0018DE  6E34               	movwf	(i2I2C_SetBuffer@bufferSize+1)^0,c
  5160   0018E0  0E01               	movlw	1
  5161   0018E2  6E33               	movwf	i2I2C_SetBuffer@bufferSize^0,c
  5162   0018E4  ECF5  F00C         	call	i2_I2C_SetBuffer	;wreg free
  5163   0018E8                     
  5164                           ;mcc_generated_files/examples/i2c_master_example.c: 159:     I2C_SetDataCompleteCallback
      +                          (((void*)0),((void*)0));
  5165   0018E8  0E00               	movlw	0
  5166   0018EA  6E36               	movwf	i2I2C_SetDataCompleteCallback@cb^0,c
  5167   0018EC  0E00               	movlw	0
  5168   0018EE  6E37               	movwf	(i2I2C_SetDataCompleteCallback@cb+1)^0,c
  5169   0018F0  0E00               	movlw	0
  5170   0018F2  6E38               	movwf	i2I2C_SetDataCompleteCallback@ptr^0,c
  5171   0018F4  0E00               	movlw	0
  5172   0018F6  6E39               	movwf	(i2I2C_SetDataCompleteCallback@ptr+1)^0,c
  5173   0018F8  EC43  F00D         	call	i2_I2C_SetDataCompleteCallback	;wreg free
  5174   0018FC                     
  5175                           ;mcc_generated_files/examples/i2c_master_example.c: 160:     return I2C_CONTINUE;
  5176   0018FC  0E04               	movlw	4
  5177   0018FE  0012               	return		;funcret
  5178   001900                     __end_of_wr1RegCompleteHandler:
  5179                           	callstack 0
  5180                           
  5181 ;; *************** function _rd2RegCompleteHandler *****************
  5182 ;; Defined at:
  5183 ;;		line 149 in file "mcc_generated_files/examples/i2c_master_example.c"
  5184 ;; Parameters:    Size  Location     Type
  5185 ;;  ptr             2    9[COMRAM] PTR void 
  5186 ;;		 -> I2C_ReadDataBlock@bufferBlock(4), I2C_Write2ByteRegister@data(2), I2C_Write1ByteRegister@data(1), I2C_Read2ByteR
      +egister@returnValue(2), 
  5187 ;;		 -> NULL(0), I2C_Read1ByteRegister@returnValue(1), 
  5188 ;; Auto vars:     Size  Location     Type
  5189 ;;		None
  5190 ;; Return value:  Size  Location     Type
  5191 ;;                  1    wreg      enum E363
  5192 ;; Registers used:
  5193 ;;		wreg, fsr2l, fsr2h, status,2, status,0, prodl, prodh, cstack
  5194 ;; Tracked objects:
  5195 ;;		On entry : 0/0
  5196 ;;		On exit  : 0/0
  5197 ;;		Unchanged: 0/0
  5198 ;; Data sizes:     COMRAM   BANK0   BANK1   BANK2   BANK3   BANK4   BANK5   BANK6   BANK7   BANK8   BANK9  BANK10  BANK1
      +1  BANK12  BANK13  BANK14  BANK15
  5199 ;;      Params:         2       0       0       0       0       0       0       0       0       0       0       0       
      +0       0       0       0       0
  5200 ;;      Locals:         0       0       0       0       0       0       0       0       0       0       0       0       
      +0       0       0       0       0
  5201 ;;      Temps:          0       0       0       0       0       0       0       0       0       0       0       0       
      +0       0       0       0       0
  5202 ;;      Totals:         2       0       0       0       0       0       0       0       0       0       0       0       
      +0       0       0       0       0
  5203 ;;Total ram usage:        2 bytes
  5204 ;; Hardware stack levels used: 1
  5205 ;; Hardware stack levels required when called: 2
  5206 ;; This function calls:
  5207 ;;		i2_I2C_SetBuffer
  5208 ;;		i2_I2C_SetDataCompleteCallback
  5209 ;; This function is called by:
  5210 ;;		_I2C_Read2ByteRegister
  5211 ;;		_I2C_DO_TX
  5212 ;;		_I2C_DO_RX
  5213 ;;		_I2C_DO_TX_EMPTY
  5214 ;;		_I2C_DO_ADDRESS_NACK
  5215 ;;		_I2C_DO_RX_EMPTY
  5216 ;; This function uses a non-reentrant model
  5217 ;;
  5218                           
  5219                           	psect	text66
  5220   001900                     __ptext66:
  5221                           	callstack 0
  5222   001900                     _rd2RegCompleteHandler:
  5223                           	callstack 19
  5224   001900                     
  5225                           ;mcc_generated_files/examples/i2c_master_example.c: 149: static i2c_operations_t rd2RegC
      +                          ompleteHandler(void *ptr);mcc_generated_files/examples/i2c_master_example.c: 150: {;mcc_
      +                          generated_files/examples/i2c_master_example.c: 151:     I2C_SetBuffer(ptr,2);
  5226   001900  C03A  F031         	movff	rd2RegCompleteHandler@ptr,i2I2C_SetBuffer@buffer
  5227   001904  C03B  F032         	movff	rd2RegCompleteHandler@ptr+1,i2I2C_SetBuffer@buffer+1
  5228   001908  0E00               	movlw	0
  5229   00190A  6E34               	movwf	(i2I2C_SetBuffer@bufferSize+1)^0,c
  5230   00190C  0E02               	movlw	2
  5231   00190E  6E33               	movwf	i2I2C_SetBuffer@bufferSize^0,c
  5232   001910  ECF5  F00C         	call	i2_I2C_SetBuffer	;wreg free
  5233   001914                     
  5234                           ;mcc_generated_files/examples/i2c_master_example.c: 152:     I2C_SetDataCompleteCallback
      +                          (((void*)0),((void*)0));
  5235   001914  0E00               	movlw	0
  5236   001916  6E36               	movwf	i2I2C_SetDataCompleteCallback@cb^0,c
  5237   001918  0E00               	movlw	0
  5238   00191A  6E37               	movwf	(i2I2C_SetDataCompleteCallback@cb+1)^0,c
  5239   00191C  0E00               	movlw	0
  5240   00191E  6E38               	movwf	i2I2C_SetDataCompleteCallback@ptr^0,c
  5241   001920  0E00               	movlw	0
  5242   001922  6E39               	movwf	(i2I2C_SetDataCompleteCallback@ptr+1)^0,c
  5243   001924  EC43  F00D         	call	i2_I2C_SetDataCompleteCallback	;wreg free
  5244   001928                     
  5245                           ;mcc_generated_files/examples/i2c_master_example.c: 153:     return I2C_RESTART_READ;
  5246   001928  0E02               	movlw	2
  5247   00192A  0012               	return		;funcret
  5248   00192C                     __end_of_rd2RegCompleteHandler:
  5249                           	callstack 0
  5250                           
  5251 ;; *************** function _rd1RegCompleteHandler *****************
  5252 ;; Defined at:
  5253 ;;		line 142 in file "mcc_generated_files/examples/i2c_master_example.c"
  5254 ;; Parameters:    Size  Location     Type
  5255 ;;  ptr             2    9[COMRAM] PTR void 
  5256 ;;		 -> I2C_ReadDataBlock@bufferBlock(4), I2C_Write2ByteRegister@data(2), I2C_Write1ByteRegister@data(1), I2C_Read2ByteR
      +egister@returnValue(2), 
  5257 ;;		 -> NULL(0), I2C_Read1ByteRegister@returnValue(1), 
  5258 ;; Auto vars:     Size  Location     Type
  5259 ;;		None
  5260 ;; Return value:  Size  Location     Type
  5261 ;;                  1    wreg      enum E363
  5262 ;; Registers used:
  5263 ;;		wreg, fsr2l, fsr2h, status,2, status,0, prodl, prodh, cstack
  5264 ;; Tracked objects:
  5265 ;;		On entry : 0/0
  5266 ;;		On exit  : 0/0
  5267 ;;		Unchanged: 0/0
  5268 ;; Data sizes:     COMRAM   BANK0   BANK1   BANK2   BANK3   BANK4   BANK5   BANK6   BANK7   BANK8   BANK9  BANK10  BANK1
      +1  BANK12  BANK13  BANK14  BANK15
  5269 ;;      Params:         2       0       0       0       0       0       0       0       0       0       0       0       
      +0       0       0       0       0
  5270 ;;      Locals:         0       0       0       0       0       0       0       0       0       0       0       0       
      +0       0       0       0       0
  5271 ;;      Temps:          0       0       0       0       0       0       0       0       0       0       0       0       
      +0       0       0       0       0
  5272 ;;      Totals:         2       0       0       0       0       0       0       0       0       0       0       0       
      +0       0       0       0       0
  5273 ;;Total ram usage:        2 bytes
  5274 ;; Hardware stack levels used: 1
  5275 ;; Hardware stack levels required when called: 2
  5276 ;; This function calls:
  5277 ;;		i2_I2C_SetBuffer
  5278 ;;		i2_I2C_SetDataCompleteCallback
  5279 ;; This function is called by:
  5280 ;;		_I2C_Read1ByteRegister
  5281 ;;		_I2C_DO_TX
  5282 ;;		_I2C_DO_RX
  5283 ;;		_I2C_DO_TX_EMPTY
  5284 ;;		_I2C_DO_ADDRESS_NACK
  5285 ;;		_I2C_DO_RX_EMPTY
  5286 ;; This function uses a non-reentrant model
  5287 ;;
  5288                           
  5289                           	psect	text67
  5290   00192C                     __ptext67:
  5291                           	callstack 0
  5292   00192C                     _rd1RegCompleteHandler:
  5293                           	callstack 19
  5294   00192C                     
  5295                           ;mcc_generated_files/examples/i2c_master_example.c: 142: static i2c_operations_t rd1RegC
      +                          ompleteHandler(void *ptr);mcc_generated_files/examples/i2c_master_example.c: 143: {;mcc_
      +                          generated_files/examples/i2c_master_example.c: 144:     I2C_SetBuffer(ptr,1);
  5296   00192C  C03A  F031         	movff	rd1RegCompleteHandler@ptr,i2I2C_SetBuffer@buffer
  5297   001930  C03B  F032         	movff	rd1RegCompleteHandler@ptr+1,i2I2C_SetBuffer@buffer+1
  5298   001934  0E00               	movlw	0
  5299   001936  6E34               	movwf	(i2I2C_SetBuffer@bufferSize+1)^0,c
  5300   001938  0E01               	movlw	1
  5301   00193A  6E33               	movwf	i2I2C_SetBuffer@bufferSize^0,c
  5302   00193C  ECF5  F00C         	call	i2_I2C_SetBuffer	;wreg free
  5303   001940                     
  5304                           ;mcc_generated_files/examples/i2c_master_example.c: 145:     I2C_SetDataCompleteCallback
      +                          (((void*)0),((void*)0));
  5305   001940  0E00               	movlw	0
  5306   001942  6E36               	movwf	i2I2C_SetDataCompleteCallback@cb^0,c
  5307   001944  0E00               	movlw	0
  5308   001946  6E37               	movwf	(i2I2C_SetDataCompleteCallback@cb+1)^0,c
  5309   001948  0E00               	movlw	0
  5310   00194A  6E38               	movwf	i2I2C_SetDataCompleteCallback@ptr^0,c
  5311   00194C  0E00               	movlw	0
  5312   00194E  6E39               	movwf	(i2I2C_SetDataCompleteCallback@ptr+1)^0,c
  5313   001950  EC43  F00D         	call	i2_I2C_SetDataCompleteCallback	;wreg free
  5314   001954                     
  5315                           ;mcc_generated_files/examples/i2c_master_example.c: 146:     return I2C_RESTART_READ;
  5316   001954  0E02               	movlw	2
  5317   001956  0012               	return		;funcret
  5318   001958                     __end_of_rd1RegCompleteHandler:
  5319                           	callstack 0
  5320                           
  5321 ;; *************** function _wr2RegCompleteHandler *****************
  5322 ;; Defined at:
  5323 ;;		line 163 in file "mcc_generated_files/examples/i2c_master_example.c"
  5324 ;; Parameters:    Size  Location     Type
  5325 ;;  ptr             2    9[COMRAM] PTR void 
  5326 ;;		 -> I2C_ReadDataBlock@bufferBlock(4), I2C_Write2ByteRegister@data(2), I2C_Write1ByteRegister@data(1), I2C_Read2ByteR
      +egister@returnValue(2), 
  5327 ;;		 -> NULL(0), I2C_Read1ByteRegister@returnValue(1), 
  5328 ;; Auto vars:     Size  Location     Type
  5329 ;;		None
  5330 ;; Return value:  Size  Location     Type
  5331 ;;                  1    wreg      enum E363
  5332 ;; Registers used:
  5333 ;;		wreg, fsr2l, fsr2h, status,2, status,0, prodl, prodh, cstack
  5334 ;; Tracked objects:
  5335 ;;		On entry : 0/0
  5336 ;;		On exit  : 0/0
  5337 ;;		Unchanged: 0/0
  5338 ;; Data sizes:     COMRAM   BANK0   BANK1   BANK2   BANK3   BANK4   BANK5   BANK6   BANK7   BANK8   BANK9  BANK10  BANK1
      +1  BANK12  BANK13  BANK14  BANK15
  5339 ;;      Params:         2       0       0       0       0       0       0       0       0       0       0       0       
      +0       0       0       0       0
  5340 ;;      Locals:         0       0       0       0       0       0       0       0       0       0       0       0       
      +0       0       0       0       0
  5341 ;;      Temps:          0       0       0       0       0       0       0       0       0       0       0       0       
      +0       0       0       0       0
  5342 ;;      Totals:         2       0       0       0       0       0       0       0       0       0       0       0       
      +0       0       0       0       0
  5343 ;;Total ram usage:        2 bytes
  5344 ;; Hardware stack levels used: 1
  5345 ;; Hardware stack levels required when called: 2
  5346 ;; This function calls:
  5347 ;;		i2_I2C_SetBuffer
  5348 ;;		i2_I2C_SetDataCompleteCallback
  5349 ;; This function is called by:
  5350 ;;		_I2C_Write2ByteRegister
  5351 ;;		_I2C_DO_TX
  5352 ;;		_I2C_DO_RX
  5353 ;;		_I2C_DO_TX_EMPTY
  5354 ;;		_I2C_DO_ADDRESS_NACK
  5355 ;;		_I2C_DO_RX_EMPTY
  5356 ;; This function uses a non-reentrant model
  5357 ;;
  5358                           
  5359                           	psect	text68
  5360   001958                     __ptext68:
  5361                           	callstack 0
  5362   001958                     _wr2RegCompleteHandler:
  5363                           	callstack 19
  5364   001958                     
  5365                           ;mcc_generated_files/examples/i2c_master_example.c: 163: static i2c_operations_t wr2RegC
      +                          ompleteHandler(void *ptr);mcc_generated_files/examples/i2c_master_example.c: 164: {;mcc_
      +                          generated_files/examples/i2c_master_example.c: 165:     I2C_SetBuffer(ptr,2);
  5366   001958  C03A  F031         	movff	wr2RegCompleteHandler@ptr,i2I2C_SetBuffer@buffer
  5367   00195C  C03B  F032         	movff	wr2RegCompleteHandler@ptr+1,i2I2C_SetBuffer@buffer+1
  5368   001960  0E00               	movlw	0
  5369   001962  6E34               	movwf	(i2I2C_SetBuffer@bufferSize+1)^0,c
  5370   001964  0E02               	movlw	2
  5371   001966  6E33               	movwf	i2I2C_SetBuffer@bufferSize^0,c
  5372   001968  ECF5  F00C         	call	i2_I2C_SetBuffer	;wreg free
  5373   00196C                     
  5374                           ;mcc_generated_files/examples/i2c_master_example.c: 166:     I2C_SetDataCompleteCallback
      +                          (((void*)0),((void*)0));
  5375   00196C  0E00               	movlw	0
  5376   00196E  6E36               	movwf	i2I2C_SetDataCompleteCallback@cb^0,c
  5377   001970  0E00               	movlw	0
  5378   001972  6E37               	movwf	(i2I2C_SetDataCompleteCallback@cb+1)^0,c
  5379   001974  0E00               	movlw	0
  5380   001976  6E38               	movwf	i2I2C_SetDataCompleteCallback@ptr^0,c
  5381   001978  0E00               	movlw	0
  5382   00197A  6E39               	movwf	(i2I2C_SetDataCompleteCallback@ptr+1)^0,c
  5383   00197C  EC43  F00D         	call	i2_I2C_SetDataCompleteCallback	;wreg free
  5384   001980                     
  5385                           ;mcc_generated_files/examples/i2c_master_example.c: 167:     return I2C_CONTINUE;
  5386   001980  0E04               	movlw	4
  5387   001982  0012               	return		;funcret
  5388   001984                     __end_of_wr2RegCompleteHandler:
  5389                           	callstack 0
  5390                           
  5391 ;; *************** function i2_I2C_SetDataCompleteCallback *****************
  5392 ;; Defined at:
  5393 ;;		line 274 in file "mcc_generated_files/i2c_master.c"
  5394 ;; Parameters:    Size  Location     Type
  5395 ;;  cb              2    5[COMRAM] PTR FTN(PTR void ,)enum 
  5396 ;;		 -> NULL(1), rdBlkRegCompleteHandler(1), wr2RegCompleteHandler(1), wr1RegCompleteHandler(1), 
  5397 ;;		 -> rd2RegCompleteHandler(1), rd1RegCompleteHandler(1), 
  5398 ;;  ptr             2    7[COMRAM] PTR void 
  5399 ;;		 -> I2C_ReadDataBlock@bufferBlock(4), I2C_Write2ByteRegister@data(2), I2C_Write1ByteRegister@data(1), I2C_Read2ByteR
      +egister@returnValue(2), 
  5400 ;;		 -> NULL(0), I2C_Read1ByteRegister@returnValue(1), 
  5401 ;; Auto vars:     Size  Location     Type
  5402 ;;		None
  5403 ;; Return value:  Size  Location     Type
  5404 ;;                  1    wreg      void 
  5405 ;; Registers used:
  5406 ;;		wreg, fsr2l, fsr2h, status,2, status,0, prodl, prodh, cstack
  5407 ;; Tracked objects:
  5408 ;;		On entry : 0/0
  5409 ;;		On exit  : 0/0
  5410 ;;		Unchanged: 0/0
  5411 ;; Data sizes:     COMRAM   BANK0   BANK1   BANK2   BANK3   BANK4   BANK5   BANK6   BANK7   BANK8   BANK9  BANK10  BANK1
      +1  BANK12  BANK13  BANK14  BANK15
  5412 ;;      Params:         4       0       0       0       0       0       0       0       0       0       0       0       
      +0       0       0       0       0
  5413 ;;      Locals:         0       0       0       0       0       0       0       0       0       0       0       0       
      +0       0       0       0       0
  5414 ;;      Temps:          0       0       0       0       0       0       0       0       0       0       0       0       
      +0       0       0       0       0
  5415 ;;      Totals:         4       0       0       0       0       0       0       0       0       0       0       0       
      +0       0       0       0       0
  5416 ;;Total ram usage:        4 bytes
  5417 ;; Hardware stack levels used: 1
  5418 ;; Hardware stack levels required when called: 1
  5419 ;; This function calls:
  5420 ;;		i2_I2C_SetCallback
  5421 ;; This function is called by:
  5422 ;;		_rd1RegCompleteHandler
  5423 ;;		_rd2RegCompleteHandler
  5424 ;;		_wr1RegCompleteHandler
  5425 ;;		_wr2RegCompleteHandler
  5426 ;;		_rdBlkRegCompleteHandler
  5427 ;; This function uses a non-reentrant model
  5428 ;;
  5429                           
  5430                           	psect	text69
  5431   001A86                     __ptext69:
  5432                           	callstack 0
  5433   001A86                     i2_I2C_SetDataCompleteCallback:
  5434                           	callstack 19
  5435   001A86                     
  5436                           ;mcc_generated_files/i2c_master.c: 274: void I2C_SetDataCompleteCallback(i2c_callback_t 
      +                          cb, void *ptr);mcc_generated_files/i2c_master.c: 275: {;mcc_generated_files/i2c_master.c
      +                          : 276:     I2C_SetCallback(I2C_DATA_COMPLETE, cb, ptr);
  5437   001A86  C036  F031         	movff	i2I2C_SetDataCompleteCallback@cb,i2I2C_SetCallback@cb
  5438   001A8A  C037  F032         	movff	i2I2C_SetDataCompleteCallback@cb+1,i2I2C_SetCallback@cb+1
  5439   001A8E  C038  F033         	movff	i2I2C_SetDataCompleteCallback@ptr,i2I2C_SetCallback@ptr
  5440   001A92  C039  F034         	movff	i2I2C_SetDataCompleteCallback@ptr+1,i2I2C_SetCallback@ptr+1
  5441   001A96  0E00               	movlw	0
  5442   001A98  EC3F  F00B         	call	i2_I2C_SetCallback
  5443   001A9C  0012               	return		;funcret
  5444   001A9E                     __end_ofi2_I2C_SetDataCompleteCallback:
  5445                           	callstack 0
  5446                           
  5447 ;; *************** function i2_I2C_SetCallback *****************
  5448 ;; Defined at:
  5449 ;;		line 304 in file "mcc_generated_files/i2c_master.c"
  5450 ;; Parameters:    Size  Location     Type
  5451 ;;  idx             1    wreg     enum E3152
  5452 ;;  cb              2    0[COMRAM] PTR FTN(PTR void ,)enum 
  5453 ;;		 -> NULL(1), rdBlkRegCompleteHandler(1), wr2RegCompleteHandler(1), wr1RegCompleteHandler(1), 
  5454 ;;		 -> rd2RegCompleteHandler(1), rd1RegCompleteHandler(1), 
  5455 ;;  ptr             2    2[COMRAM] PTR void 
  5456 ;;		 -> I2C_ReadDataBlock@bufferBlock(4), I2C_Write2ByteRegister@data(2), I2C_Write1ByteRegister@data(1), I2C_Read2ByteR
      +egister@returnValue(2), 
  5457 ;;		 -> NULL(0), I2C_Read1ByteRegister@returnValue(1), 
  5458 ;; Auto vars:     Size  Location     Type
  5459 ;;  idx             1    4[COMRAM] enum E3152
  5460 ;; Return value:  Size  Location     Type
  5461 ;;                  1    wreg      void 
  5462 ;; Registers used:
  5463 ;;		wreg, fsr2l, fsr2h, status,2, status,0, prodl, prodh
  5464 ;; Tracked objects:
  5465 ;;		On entry : 0/0
  5466 ;;		On exit  : 0/0
  5467 ;;		Unchanged: 0/0
  5468 ;; Data sizes:     COMRAM   BANK0   BANK1   BANK2   BANK3   BANK4   BANK5   BANK6   BANK7   BANK8   BANK9  BANK10  BANK1
      +1  BANK12  BANK13  BANK14  BANK15
  5469 ;;      Params:         4       0       0       0       0       0       0       0       0       0       0       0       
      +0       0       0       0       0
  5470 ;;      Locals:         1       0       0       0       0       0       0       0       0       0       0       0       
      +0       0       0       0       0
  5471 ;;      Temps:          0       0       0       0       0       0       0       0       0       0       0       0       
      +0       0       0       0       0
  5472 ;;      Totals:         5       0       0       0       0       0       0       0       0       0       0       0       
      +0       0       0       0       0
  5473 ;;Total ram usage:        5 bytes
  5474 ;; Hardware stack levels used: 1
  5475 ;; This function calls:
  5476 ;;		Nothing
  5477 ;; This function is called by:
  5478 ;;		i2_I2C_SetDataCompleteCallback
  5479 ;; This function uses a non-reentrant model
  5480 ;;
  5481                           
  5482                           	psect	text70
  5483   00167E                     __ptext70:
  5484                           	callstack 0
  5485   00167E                     i2_I2C_SetCallback:
  5486                           	callstack 19
  5487                           
  5488                           ;incstack = 0
  5489                           ;i2I2C_SetCallback@idx stored from wreg
  5490   00167E  6E35               	movwf	i2I2C_SetCallback@idx^0,c
  5491   001680                     
  5492                           ;mcc_generated_files/i2c_master.c: 304: static void I2C_SetCallback(i2c_callbackIndex_t 
      +                          idx, i2c_callback_t cb, void *ptr);mcc_generated_files/i2c_master.c: 305: {;mcc_generate
      +                          d_files/i2c_master.c: 306:     if(cb)
  5493   001680  5031               	movf	i2I2C_SetCallback@cb^0,w,c
  5494   001682  1032               	iorwf	(i2I2C_SetCallback@cb+1)^0,w,c
  5495   001684  B4D8               	btfsc	status,2,c
  5496   001686  EF47  F00B         	goto	i2u108_41
  5497   00168A  EF49  F00B         	goto	i2u108_40
  5498   00168E                     i2u108_41:
  5499   00168E  EF5F  F00B         	goto	i2l3033
  5500   001692                     i2u108_40:
  5501   001692                     
  5502                           ;mcc_generated_files/i2c_master.c: 307:     {;mcc_generated_files/i2c_master.c: 308:    
      +                               I2C_Status.callbackTable[idx] = cb;
  5503   001692  5035               	movf	i2I2C_SetCallback@idx^0,w,c
  5504   001694  0D02               	mullw	2
  5505   001696  50F3               	movf	243,w,c
  5506   001698  0F01               	addlw	low _I2C_Status
  5507   00169A  6ED9               	movwf	fsr2l,c
  5508   00169C  6ADA               	clrf	fsr2h,c
  5509   00169E  C031  FFDE         	movff	i2I2C_SetCallback@cb,postinc2
  5510   0016A2  C032  FFDD         	movff	i2I2C_SetCallback@cb+1,postdec2
  5511                           
  5512                           ;mcc_generated_files/i2c_master.c: 309:         I2C_Status.callbackPayload[idx] = ptr;
  5513   0016A6  5035               	movf	i2I2C_SetCallback@idx^0,w,c
  5514   0016A8  0D02               	mullw	2
  5515   0016AA  50F3               	movf	243,w,c
  5516   0016AC  0F0D               	addlw	low (_I2C_Status+12)
  5517   0016AE  6ED9               	movwf	fsr2l,c
  5518   0016B0  6ADA               	clrf	fsr2h,c
  5519   0016B2  C033  FFDE         	movff	i2I2C_SetCallback@ptr,postinc2
  5520   0016B6  C034  FFDD         	movff	i2I2C_SetCallback@ptr+1,postdec2
  5521                           
  5522                           ;mcc_generated_files/i2c_master.c: 310:     }
  5523   0016BA  EF71  F00B         	goto	i2l285
  5524   0016BE                     i2l3033:
  5525                           
  5526                           ;mcc_generated_files/i2c_master.c: 312:     {;mcc_generated_files/i2c_master.c: 313:    
      +                               I2C_Status.callbackTable[idx] = I2C_CallbackReturnStop;
  5527   0016BE  5035               	movf	i2I2C_SetCallback@idx^0,w,c
  5528   0016C0  0D02               	mullw	2
  5529   0016C2  50F3               	movf	243,w,c
  5530   0016C4  0F01               	addlw	low _I2C_Status
  5531   0016C6  6ED9               	movwf	fsr2l,c
  5532   0016C8  6ADA               	clrf	fsr2h,c
  5533   0016CA  0EE6               	movlw	low _I2C_CallbackReturnStop
  5534   0016CC  6EDE               	movwf	postinc2,c
  5535   0016CE  0E1B               	movlw	high _I2C_CallbackReturnStop
  5536   0016D0  6EDD               	movwf	postdec2,c
  5537                           
  5538                           ;mcc_generated_files/i2c_master.c: 314:         I2C_Status.callbackPayload[idx] = ((void
      +                          *)0);
  5539   0016D2  5035               	movf	i2I2C_SetCallback@idx^0,w,c
  5540   0016D4  0D02               	mullw	2
  5541   0016D6  50F3               	movf	243,w,c
  5542   0016D8  0F0D               	addlw	low (_I2C_Status+12)
  5543   0016DA  6ED9               	movwf	fsr2l,c
  5544   0016DC  6ADA               	clrf	fsr2h,c
  5545   0016DE  6ADE               	clrf	postinc2,c
  5546   0016E0  6ADD               	clrf	postdec2,c
  5547   0016E2                     i2l285:
  5548   0016E2  0012               	return		;funcret
  5549   0016E4                     __end_ofi2_I2C_SetCallback:
  5550                           	callstack 0
  5551                           
  5552 ;; *************** function i2_I2C_SetBuffer *****************
  5553 ;; Defined at:
  5554 ;;		line 264 in file "mcc_generated_files/i2c_master.c"
  5555 ;; Parameters:    Size  Location     Type
  5556 ;;  buffer          2    0[COMRAM] PTR void 
  5557 ;;		 -> I2C_Read1ByteRegister@returnValue$data(3), I2C_Read2ByteRegister@returnValue$data(3), I2C_Write1ByteRegister@dat
      +a$data(3), I2C_Write2ByteRegister@data$data(3), 
  5558 ;;		 -> I2C_ReadDataBlock@reg(1), I2C_ReadDataBlock@bufferBlock(4), bufferBlock$data(3), I2C_Write2ByteRegister@reg(1), 
  5559 ;;		 -> I2C_Write2ByteRegister@data(2), I2C_Write1ByteRegister@reg(1), I2C_Write1ByteRegister@data(1), I2C_Read2ByteRegi
      +ster@reg(1), 
  5560 ;;		 -> I2C_Read2ByteRegister@returnValue(2), NULL(0), I2C_Read1ByteRegister@reg(1), I2C_Read1ByteRegister@returnValue(1
      +), 
  5561 ;;  bufferSize      2    2[COMRAM] unsigned int 
  5562 ;; Auto vars:     Size  Location     Type
  5563 ;;		None
  5564 ;; Return value:  Size  Location     Type
  5565 ;;                  1    wreg      void 
  5566 ;; Registers used:
  5567 ;;		wreg, status,2, status,0
  5568 ;; Tracked objects:
  5569 ;;		On entry : 0/0
  5570 ;;		On exit  : 0/0
  5571 ;;		Unchanged: 0/0
  5572 ;; Data sizes:     COMRAM   BANK0   BANK1   BANK2   BANK3   BANK4   BANK5   BANK6   BANK7   BANK8   BANK9  BANK10  BANK1
      +1  BANK12  BANK13  BANK14  BANK15
  5573 ;;      Params:         4       0       0       0       0       0       0       0       0       0       0       0       
      +0       0       0       0       0
  5574 ;;      Locals:         0       0       0       0       0       0       0       0       0       0       0       0       
      +0       0       0       0       0
  5575 ;;      Temps:          0       0       0       0       0       0       0       0       0       0       0       0       
      +0       0       0       0       0
  5576 ;;      Totals:         4       0       0       0       0       0       0       0       0       0       0       0       
      +0       0       0       0       0
  5577 ;;Total ram usage:        4 bytes
  5578 ;; Hardware stack levels used: 1
  5579 ;; This function calls:
  5580 ;;		Nothing
  5581 ;; This function is called by:
  5582 ;;		_rd1RegCompleteHandler
  5583 ;;		_rd2RegCompleteHandler
  5584 ;;		_wr1RegCompleteHandler
  5585 ;;		_wr2RegCompleteHandler
  5586 ;;		_rdBlkRegCompleteHandler
  5587 ;; This function uses a non-reentrant model
  5588 ;;
  5589                           
  5590                           	psect	text71
  5591   0019EA                     __ptext71:
  5592                           	callstack 0
  5593   0019EA                     i2_I2C_SetBuffer:
  5594                           	callstack 20
  5595   0019EA                     
  5596                           ;mcc_generated_files/i2c_master.c: 264: void I2C_SetBuffer(void *buffer, size_t bufferSi
      +                          ze);mcc_generated_files/i2c_master.c: 265: {;mcc_generated_files/i2c_master.c: 266:     
      +                          if(I2C_Status.bufferFree)
  5597   0019EA  A624               	btfss	(_I2C_Status+35)^0,3,c
  5598   0019EC  EFFA  F00C         	goto	i2u109_41
  5599   0019F0  EFFC  F00C         	goto	i2u109_40
  5600   0019F4                     i2u109_41:
  5601   0019F4  EF05  F00D         	goto	i2l262
  5602   0019F8                     i2u109_40:
  5603   0019F8                     
  5604                           ;mcc_generated_files/i2c_master.c: 267:     {;mcc_generated_files/i2c_master.c: 268:    
      +                               I2C_Status.data_ptr = buffer;
  5605   0019F8  C031  F01E         	movff	i2I2C_SetBuffer@buffer,_I2C_Status+29
  5606   0019FC  C032  F01F         	movff	i2I2C_SetBuffer@buffer+1,_I2C_Status+30
  5607   001A00                     
  5608                           ;mcc_generated_files/i2c_master.c: 269:         I2C_Status.data_length = bufferSize;
  5609   001A00  C033  F020         	movff	i2I2C_SetBuffer@bufferSize,_I2C_Status+31
  5610   001A04  C034  F021         	movff	i2I2C_SetBuffer@bufferSize+1,_I2C_Status+32
  5611   001A08                     
  5612                           ;mcc_generated_files/i2c_master.c: 270:         I2C_Status.bufferFree = 0;
  5613   001A08  9624               	bcf	(_I2C_Status+35)^0,3,c
  5614   001A0A                     i2l262:
  5615   001A0A  0012               	return		;funcret
  5616   001A0C                     __end_ofi2_I2C_SetBuffer:
  5617                           	callstack 0
  5618                           
  5619 ;; *************** function _I2C_MasterStop *****************
  5620 ;; Defined at:
  5621 ;;		line 594 in file "mcc_generated_files/i2c_master.c"
  5622 ;; Parameters:    Size  Location     Type
  5623 ;;		None
  5624 ;; Auto vars:     Size  Location     Type
  5625 ;;		None
  5626 ;; Return value:  Size  Location     Type
  5627 ;;                  1    wreg      void 
  5628 ;; Registers used:
  5629 ;;		None
  5630 ;; Tracked objects:
  5631 ;;		On entry : 0/0
  5632 ;;		On exit  : 0/0
  5633 ;;		Unchanged: 0/0
  5634 ;; Data sizes:     COMRAM   BANK0   BANK1   BANK2   BANK3   BANK4   BANK5   BANK6   BANK7   BANK8   BANK9  BANK10  BANK1
      +1  BANK12  BANK13  BANK14  BANK15
  5635 ;;      Params:         0       0       0       0       0       0       0       0       0       0       0       0       
      +0       0       0       0       0
  5636 ;;      Locals:         0       0       0       0       0       0       0       0       0       0       0       0       
      +0       0       0       0       0
  5637 ;;      Temps:          0       0       0       0       0       0       0       0       0       0       0       0       
      +0       0       0       0       0
  5638 ;;      Totals:         0       0       0       0       0       0       0       0       0       0       0       0       
      +0       0       0       0       0
  5639 ;;Total ram usage:        0 bytes
  5640 ;; Hardware stack levels used: 1
  5641 ;; This function calls:
  5642 ;;		Nothing
  5643 ;; This function is called by:
  5644 ;;		_I2C_DO_SEND_STOP
  5645 ;; This function uses a non-reentrant model
  5646 ;;
  5647                           
  5648                           	psect	text72
  5649   001BEA                     __ptext72:
  5650                           	callstack 0
  5651   001BEA                     _I2C_MasterStop:
  5652                           	callstack 20
  5653   001BEA                     
  5654                           ;mcc_generated_files/i2c_master.c: 596:     SSPCON2bits.PEN = 1;
  5655   001BEA  84C5               	bsf	197,2,c	;volatile
  5656   001BEC  0012               	return		;funcret
  5657   001BEE                     __end_of_I2C_MasterStop:
  5658                           	callstack 0
  5659                           
  5660 ;; *************** function _I2C_MasterEnableRestart *****************
  5661 ;; Defined at:
  5662 ;;		line 574 in file "mcc_generated_files/i2c_master.c"
  5663 ;; Parameters:    Size  Location     Type
  5664 ;;		None
  5665 ;; Auto vars:     Size  Location     Type
  5666 ;;		None
  5667 ;; Return value:  Size  Location     Type
  5668 ;;                  1    wreg      void 
  5669 ;; Registers used:
  5670 ;;		None
  5671 ;; Tracked objects:
  5672 ;;		On entry : 0/0
  5673 ;;		On exit  : 0/0
  5674 ;;		Unchanged: 0/0
  5675 ;; Data sizes:     COMRAM   BANK0   BANK1   BANK2   BANK3   BANK4   BANK5   BANK6   BANK7   BANK8   BANK9  BANK10  BANK1
      +1  BANK12  BANK13  BANK14  BANK15
  5676 ;;      Params:         0       0       0       0       0       0       0       0       0       0       0       0       
      +0       0       0       0       0
  5677 ;;      Locals:         0       0       0       0       0       0       0       0       0       0       0       0       
      +0       0       0       0       0
  5678 ;;      Temps:          0       0       0       0       0       0       0       0       0       0       0       0       
      +0       0       0       0       0
  5679 ;;      Totals:         0       0       0       0       0       0       0       0       0       0       0       0       
      +0       0       0       0       0
  5680 ;;Total ram usage:        0 bytes
  5681 ;; Hardware stack levels used: 1
  5682 ;; This function calls:
  5683 ;;		Nothing
  5684 ;; This function is called by:
  5685 ;;		_I2C_DO_SEND_RESTART_READ
  5686 ;;		_I2C_DO_SEND_RESTART_WRITE
  5687 ;;		_I2C_DO_SEND_RESTART
  5688 ;;		_I2C_DO_RX_EMPTY
  5689 ;; This function uses a non-reentrant model
  5690 ;;
  5691                           
  5692                           	psect	text73
  5693   001BEE                     __ptext73:
  5694                           	callstack 0
  5695   001BEE                     _I2C_MasterEnableRestart:
  5696                           	callstack 20
  5697   001BEE                     
  5698                           ;mcc_generated_files/i2c_master.c: 576:     SSPCON2bits.RSEN = 1;
  5699   001BEE  82C5               	bsf	197,1,c	;volatile
  5700   001BF0  0012               	return		;funcret
  5701   001BF2                     __end_of_I2C_MasterEnableRestart:
  5702                           	callstack 0
  5703                           
  5704                           	psect	text74
  5705   000000                     __ptext74:
  5706                           	callstack 0
  5707   000000                     
  5708                           	psect	rparam
  5709   000000                     
  5710                           	psect	temp
  5711   00004C                     btemp:
  5712                           	callstack 0
  5713   00004C                     	ds	1
  5714   000000                     int$flags	set	btemp
  5715   000000                     wtemp8	set	btemp+1
  5716   000000                     ttemp5	set	btemp+1
  5717   000000                     ttemp6	set	btemp+4
  5718   000000                     ttemp7	set	btemp+8
  5719                           
  5720                           	psect	config
  5721                           
  5722                           ; Padding undefined space
  5723   300000                     	org	3145728
  5724   300000  FF                 	db	255
  5725                           
  5726                           ;Config register CONFIG1H @ 0x300001
  5727                           ;	Oscillator Selection bits
  5728                           ;	FOSC = INTIO67, Internal oscillator block, port function on RA6 and RA7
  5729                           ;	Fail-Safe Clock Monitor Enable bit
  5730                           ;	FCMEN = OFF, Fail-Safe Clock Monitor disabled
  5731                           ;	Internal/External Oscillator Switchover bit
  5732                           ;	IESO = OFF, Oscillator Switchover mode disabled
  5733   300001                     	org	3145729
  5734   300001  08                 	db	8
  5735                           
  5736                           ;Config register CONFIG2L @ 0x300002
  5737                           ;	Power-up Timer Enable bit
  5738                           ;	PWRTEN = OFF, PWRT disabled
  5739                           ;	Brown-out Reset Enable bits
  5740                           ;	BOREN = SBORDIS, Brown-out Reset enabled in hardware only (SBOREN is disabled)
  5741                           ;	Brown Out Reset Voltage bits
  5742                           ;	BORV = 18, VBOR set to 1.8 V nominal
  5743   300002                     	org	3145730
  5744   300002  1F                 	db	31
  5745                           
  5746                           ;Config register CONFIG2H @ 0x300003
  5747                           ;	Watchdog Timer Enable bit
  5748                           ;	WDTEN = OFF, WDT is controlled by SWDTEN bit of the WDTCON register
  5749                           ;	Watchdog Timer Postscale Select bits
  5750                           ;	WDTPS = 32768, 1:32768
  5751   300003                     	org	3145731
  5752   300003  1E                 	db	30
  5753                           
  5754                           ; Padding undefined space
  5755   300004                     	org	3145732
  5756   300004  FF                 	db	255
  5757                           
  5758                           ;Config register CONFIG3H @ 0x300005
  5759                           ;	CCP2 MUX bit
  5760                           ;	CCP2MX = PORTC, CCP2 input/output is multiplexed with RC1
  5761                           ;	PORTB A/D Enable bit
  5762                           ;	PBADEN = ON, PORTB<4:0> pins are configured as analog input channels on Reset
  5763                           ;	Low-Power Timer1 Oscillator Enable bit
  5764                           ;	LPT1OSC = OFF, Timer1 configured for higher power operation
  5765                           ;	HFINTOSC Fast Start-up
  5766                           ;	HFOFST = ON, HFINTOSC starts clocking the CPU without waiting for the oscillator to st
      +                          ablize.
  5767                           ;	MCLR Pin Enable bit
  5768                           ;	MCLRE = ON, MCLR pin enabled; RE3 input pin disabled
  5769   300005                     	org	3145733
  5770   300005  8B                 	db	139
  5771                           
  5772                           ;Config register CONFIG4L @ 0x300006
  5773                           ;	Stack Full/Underflow Reset Enable bit
  5774                           ;	STVREN = ON, Stack full/underflow will cause Reset
  5775                           ;	Single-Supply ICSP Enable bit
  5776                           ;	LVP = ON, Single-Supply ICSP enabled
  5777                           ;	Extended Instruction Set Enable bit
  5778                           ;	XINST = OFF, Instruction set extension and Indexed Addressing mode disabled (Legacy mo
      +                          de)
  5779                           ;	Background Debugger Enable bit
  5780                           ;	DEBUG = OFF, Background debugger disabled, RB6 and RB7 configured as general purpose I
      +                          /O pins
  5781   300006                     	org	3145734
  5782   300006  85                 	db	133
  5783                           
  5784                           ; Padding undefined space
  5785   300007                     	org	3145735
  5786   300007  FF                 	db	255
  5787                           
  5788                           ;Config register CONFIG5L @ 0x300008
  5789                           ;	Code Protection Block 0
  5790                           ;	CP0 = OFF, Block 0 (000800-003FFFh) not code-protected
  5791                           ;	Code Protection Block 1
  5792                           ;	CP1 = OFF, Block 1 (004000-007FFFh) not code-protected
  5793                           ;	Code Protection Block 2
  5794                           ;	CP2 = OFF, Block 2 (008000-00BFFFh) not code-protected
  5795                           ;	Code Protection Block 3
  5796                           ;	CP3 = OFF, Block 3 (00C000-00FFFFh) not code-protected
  5797   300008                     	org	3145736
  5798   300008  0F                 	db	15
  5799                           
  5800                           ;Config register CONFIG5H @ 0x300009
  5801                           ;	Boot Block Code Protection bit
  5802                           ;	CPB = OFF, Boot block (000000-0007FFh) not code-protected
  5803                           ;	Data EEPROM Code Protection bit
  5804                           ;	CPD = OFF, Data EEPROM not code-protected
  5805   300009                     	org	3145737
  5806   300009  C0                 	db	192
  5807                           
  5808                           ;Config register CONFIG6L @ 0x30000A
  5809                           ;	Write Protection Block 0
  5810                           ;	WRT0 = OFF, Block 0 (000800-003FFFh) not write-protected
  5811                           ;	Write Protection Block 1
  5812                           ;	WRT1 = OFF, Block 1 (004000-007FFFh) not write-protected
  5813                           ;	Write Protection Block 2
  5814                           ;	WRT2 = OFF, Block 2 (008000-00BFFFh) not write-protected
  5815                           ;	Write Protection Block 3
  5816                           ;	WRT3 = OFF, Block 3 (00C000h-00FFFFh) not write-protected
  5817   30000A                     	org	3145738
  5818   30000A  0F                 	db	15
  5819                           
  5820                           ;Config register CONFIG6H @ 0x30000B
  5821                           ;	Configuration Register Write Protection bit
  5822                           ;	WRTC = OFF, Configuration registers (300000-3000FFh) not write-protected
  5823                           ;	Boot Block Write Protection bit
  5824                           ;	WRTB = OFF, Boot Block (000000-0007FFh) not write-protected
  5825                           ;	Data EEPROM Write Protection bit
  5826                           ;	WRTD = OFF, Data EEPROM not write-protected
  5827   30000B                     	org	3145739
  5828   30000B  E0                 	db	224
  5829                           
  5830                           ;Config register CONFIG7L @ 0x30000C
  5831                           ;	Table Read Protection Block 0
  5832                           ;	EBTR0 = OFF, Block 0 (000800-003FFFh) not protected from table reads executed in other
      +                           blocks
  5833                           ;	Table Read Protection Block 1
  5834                           ;	EBTR1 = OFF, Block 1 (004000-007FFFh) not protected from table reads executed in other
      +                           blocks
  5835                           ;	Table Read Protection Block 2
  5836                           ;	EBTR2 = OFF, Block 2 (008000-00BFFFh) not protected from table reads executed in other
      +                           blocks
  5837                           ;	Table Read Protection Block 3
  5838                           ;	EBTR3 = OFF, Block 3 (00C000-00FFFFh) not protected from table reads executed in other
      +                           blocks
  5839   30000C                     	org	3145740
  5840   30000C  0F                 	db	15
  5841                           
  5842                           ;Config register CONFIG7H @ 0x30000D
  5843                           ;	Boot Block Table Read Protection bit
  5844                           ;	EBTRB = OFF, Boot Block (000000-0007FFh) not protected from table reads executed in ot
      +                          her blocks
  5845   30000D                     	org	3145741
  5846   30000D  40                 	db	64
  5847                           tosu	equ	0xFFF
  5848                           tosh	equ	0xFFE
  5849                           tosl	equ	0xFFD
  5850                           stkptr	equ	0xFFC
  5851                           pclatu	equ	0xFFB
  5852                           pclath	equ	0xFFA
  5853                           pcl	equ	0xFF9
  5854                           tblptru	equ	0xFF8
  5855                           tblptrh	equ	0xFF7
  5856                           tblptrl	equ	0xFF6
  5857                           tablat	equ	0xFF5
  5858                           prodh	equ	0xFF4
  5859                           prodl	equ	0xFF3
  5860                           indf0	equ	0xFEF
  5861                           postinc0	equ	0xFEE
  5862                           postdec0	equ	0xFED
  5863                           preinc0	equ	0xFEC
  5864                           plusw0	equ	0xFEB
  5865                           fsr0h	equ	0xFEA
  5866                           fsr0l	equ	0xFE9
  5867                           wreg	equ	0xFE8
  5868                           indf1	equ	0xFE7
  5869                           postinc1	equ	0xFE6
  5870                           postdec1	equ	0xFE5
  5871                           preinc1	equ	0xFE4
  5872                           plusw1	equ	0xFE3
  5873                           fsr1h	equ	0xFE2
  5874                           fsr1l	equ	0xFE1
  5875                           bsr	equ	0xFE0
  5876                           indf2	equ	0xFDF
  5877                           postinc2	equ	0xFDE
  5878                           postdec2	equ	0xFDD
  5879                           preinc2	equ	0xFDC
  5880                           plusw2	equ	0xFDB
  5881                           fsr2h	equ	0xFDA
  5882                           fsr2l	equ	0xFD9
  5883                           status	equ	0xFD8

Data Sizes:
    Strings     14
    Constant    32
    Data        0
    BSS         72
    Persistent  6
    Stack       0

Auto Spaces:
    Space          Size  Autos    Used
    COMRAM           94     27      75
    BANK0           160     19      49
    BANK1           256      0       0
    BANK2           256      0       0
    BANK3           256      0       0
    BANK4           256      0       0
    BANK5           256      0       0
    BANK6           256      0       0
    BANK7           256      0       0
    BANK8           256      0       0
    BANK9           256      0       0
    BANK10          256      0       0
    BANK11          256      0       0
    BANK12          256      0       0
    BANK13          256      0       0
    BANK14          256      0       0
    BANK15           96      0       0

Pointer List with Targets:

    bufferBlock$data	PTR unsigned char  size(2) Largest target is 0

    cb$0	PTR void  size(2) Largest target is 5
		 -> I2C_Read1ByteRegister@returnValue(BANK0[1]), I2C_Read2ByteRegister@returnValue(BANK0[2]), I2C_ReadDataBlock@bufferBlock(COMRAM[4]), I2C_Write1ByteRegister@data(BANK0[1]), 
		 -> I2C_Write2ByteRegister@data(COMRAM[2]), NULL(NULL[0]), 

    cb$0	PTR void  size(2) Largest target is 5
		 -> I2C_Read1ByteRegister@returnValue(BANK0[1]), I2C_Read2ByteRegister@returnValue(BANK0[2]), I2C_ReadDataBlock@bufferBlock(COMRAM[4]), I2C_Write1ByteRegister@data(BANK0[1]), 
		 -> I2C_Write2ByteRegister@data(COMRAM[2]), NULL(NULL[0]), 

    EUSART_ErrorHandler	PTR FTN()void  size(2) Largest target is 1
		 -> EUSART_DefaultErrorHandler(), NULL(), 

    EUSART_FramingErrorHandler	PTR FTN()void  size(2) Largest target is 1
		 -> EUSART_DefaultFramingErrorHandler(), NULL(), 

    EUSART_OverrunErrorHandler	PTR FTN()void  size(2) Largest target is 1
		 -> EUSART_DefaultOverrunErrorHandler(), NULL(), 

    EUSART_SetErrorHandler@interruptHandler	PTR FTN()void  size(2) Largest target is 1
		 -> EUSART_DefaultErrorHandler(), 

    EUSART_SetFramingErrorHandler@interruptHandler	PTR FTN()void  size(2) Largest target is 1
		 -> EUSART_DefaultFramingErrorHandler(), 

    EUSART_SetOverrunErrorHandler@interruptHandler	PTR FTN()void  size(2) Largest target is 1
		 -> EUSART_DefaultOverrunErrorHandler(), 

    I2C_CallbackReturnReset@funPtr	PTR void  size(2) Largest target is 5
		 -> I2C_Read1ByteRegister@returnValue(BANK0[1]), I2C_Read2ByteRegister@returnValue(BANK0[2]), I2C_ReadDataBlock@bufferBlock(COMRAM[4]), I2C_Write1ByteRegister@data(BANK0[1]), 
		 -> I2C_Write2ByteRegister@data(COMRAM[2]), NULL(NULL[0]), 

    I2C_CallbackReturnStop@funPtr	PTR void  size(2) Largest target is 5
		 -> I2C_Read1ByteRegister@returnValue(BANK0[1]), I2C_Read2ByteRegister@returnValue(BANK0[2]), I2C_ReadDataBlock@bufferBlock(COMRAM[4]), I2C_Write1ByteRegister@data(BANK0[1]), 
		 -> I2C_Write2ByteRegister@data(COMRAM[2]), NULL(NULL[0]), 

    I2C_DO_RX$2515	PTR FTN(PTR void ,)enum E363 size(2) Largest target is 1
		 -> I2C_CallbackReturnReset(), I2C_CallbackReturnStop(), rd1RegCompleteHandler(), rd2RegCompleteHandler(), 
		 -> rdBlkRegCompleteHandler(), wr1RegCompleteHandler(), wr2RegCompleteHandler(), NULL(), 

    I2C_DO_RX$2515$0	PTR void  size(2) Largest target is 5
		 -> I2C_Read1ByteRegister@returnValue(BANK0[1]), I2C_Read2ByteRegister@returnValue(BANK0[2]), I2C_ReadDataBlock@bufferBlock(COMRAM[4]), I2C_Write1ByteRegister@data(BANK0[1]), 
		 -> I2C_Write2ByteRegister@data(COMRAM[2]), NULL(NULL[0]), 

    I2C_DO_RX$2520	PTR void  size(2) Largest target is 5
		 -> I2C_Read1ByteRegister@returnValue(BANK0[1]), I2C_Read2ByteRegister@returnValue(BANK0[2]), I2C_ReadDataBlock@bufferBlock(COMRAM[4]), I2C_Write1ByteRegister@data(BANK0[1]), 
		 -> I2C_Write2ByteRegister@data(COMRAM[2]), NULL(NULL[0]), 

    I2C_DO_RX_EMPTY$2527$0	PTR void  size(2) Largest target is 5
		 -> I2C_Read1ByteRegister@returnValue(BANK0[1]), I2C_Read2ByteRegister@returnValue(BANK0[2]), I2C_ReadDataBlock@bufferBlock(COMRAM[4]), I2C_Write1ByteRegister@data(BANK0[1]), 
		 -> I2C_Write2ByteRegister@data(COMRAM[2]), NULL(NULL[0]), 

    I2C_DO_TX$2509	PTR FTN(PTR void ,)enum E363 size(2) Largest target is 1
		 -> I2C_CallbackReturnReset(), I2C_CallbackReturnStop(), rd1RegCompleteHandler(), rd2RegCompleteHandler(), 
		 -> rdBlkRegCompleteHandler(), wr1RegCompleteHandler(), wr2RegCompleteHandler(), NULL(), 

    I2C_DO_TX$2509$0	PTR void  size(2) Largest target is 5
		 -> I2C_Read1ByteRegister@returnValue(BANK0[1]), I2C_Read2ByteRegister@returnValue(BANK0[2]), I2C_ReadDataBlock@bufferBlock(COMRAM[4]), I2C_Write1ByteRegister@data(BANK0[1]), 
		 -> I2C_Write2ByteRegister@data(COMRAM[2]), NULL(NULL[0]), 

    I2C_DO_TX$2514	PTR void  size(2) Largest target is 5
		 -> I2C_Read1ByteRegister@returnValue(BANK0[1]), I2C_Read2ByteRegister@returnValue(BANK0[2]), I2C_ReadDataBlock@bufferBlock(COMRAM[4]), I2C_Write1ByteRegister@data(BANK0[1]), 
		 -> I2C_Write2ByteRegister@data(COMRAM[2]), NULL(NULL[0]), 

    I2C_DO_TX_EMPTY$2521	PTR FTN(PTR void ,)enum E363 size(2) Largest target is 1
		 -> I2C_CallbackReturnReset(), I2C_CallbackReturnStop(), rd1RegCompleteHandler(), rd2RegCompleteHandler(), 
		 -> rdBlkRegCompleteHandler(), wr1RegCompleteHandler(), wr2RegCompleteHandler(), NULL(), 

    I2C_DO_TX_EMPTY$2521$0	PTR void  size(2) Largest target is 5
		 -> I2C_Read1ByteRegister@returnValue(BANK0[1]), I2C_Read2ByteRegister@returnValue(BANK0[2]), I2C_ReadDataBlock@bufferBlock(COMRAM[4]), I2C_Write1ByteRegister@data(BANK0[1]), 
		 -> I2C_Write2ByteRegister@data(COMRAM[2]), NULL(NULL[0]), 

    I2C_DO_TX_EMPTY$2526	PTR void  size(2) Largest target is 5
		 -> I2C_Read1ByteRegister@returnValue(BANK0[1]), I2C_Read2ByteRegister@returnValue(BANK0[2]), I2C_ReadDataBlock@bufferBlock(COMRAM[4]), I2C_Write1ByteRegister@data(BANK0[1]), 
		 -> I2C_Write2ByteRegister@data(COMRAM[2]), NULL(NULL[0]), 

    i2c_fsmStateTable	const PTR FTN()enum E3134[16] size(2) Largest target is 1
		 -> I2C_DO_ADDRESS_NACK(), I2C_DO_IDLE(), I2C_DO_RCEN(), I2C_DO_RESET(), 
		 -> I2C_DO_RX(), I2C_DO_RX_ACK(), I2C_DO_RX_NACK_RESTART(), I2C_DO_RX_NACK_STOP(), 
		 -> I2C_DO_SEND_ADR_READ(), I2C_DO_SEND_ADR_WRITE(), I2C_DO_SEND_RESTART(), I2C_DO_SEND_RESTART_READ(), 
		 -> I2C_DO_SEND_RESTART_WRITE(), I2C_DO_SEND_STOP(), I2C_DO_TX(), I2C_DO_TX_EMPTY(), 

    I2C_MasterFsm$2508	const PTR FTN()enum E3134 size(2) Largest target is 1
		 -> I2C_DO_ADDRESS_NACK(), I2C_DO_IDLE(), I2C_DO_RCEN(), I2C_DO_RESET(), 
		 -> I2C_DO_RX(), I2C_DO_RX_ACK(), I2C_DO_RX_NACK_RESTART(), I2C_DO_RX_NACK_STOP(), 
		 -> I2C_DO_SEND_ADR_READ(), I2C_DO_SEND_ADR_WRITE(), I2C_DO_SEND_RESTART(), I2C_DO_SEND_RESTART_READ(), 
		 -> I2C_DO_SEND_RESTART_WRITE(), I2C_DO_SEND_STOP(), I2C_DO_TX(), I2C_DO_TX_EMPTY(), 

    I2C_Read1ByteRegister@returnValue$data	PTR unsigned char  size(2) Largest target is 0

    I2C_Read2ByteRegister@returnValue$data	PTR unsigned char  size(2) Largest target is 0

    I2C_SetAddressNackCallback@cb	PTR FTN(PTR void ,)enum E363 size(2) Largest target is 1
		 -> NULL(), 

    I2C_SetAddressNackCallback@ptr	PTR void  size(2) Largest target is 0
		 -> NULL(NULL[0]), 

    I2C_SetBuffer@buffer	PTR void  size(2) Largest target is 5
		 -> I2C_Read1ByteRegister@reg(BANK0[1]), I2C_Read1ByteRegister@returnValue(BANK0[1]), I2C_Read2ByteRegister@reg(BANK0[1]), I2C_Read2ByteRegister@returnValue(BANK0[2]), 
		 -> I2C_ReadDataBlock@bufferBlock(COMRAM[4]), I2C_ReadDataBlock@reg(COMRAM[1]), I2C_Write1ByteRegister@data(BANK0[1]), I2C_Write1ByteRegister@reg(BANK0[1]), 
		 -> I2C_Write2ByteRegister@data(COMRAM[2]), I2C_Write2ByteRegister@reg(COMRAM[1]), NULL(NULL[0]), 

    I2C_SetCallback@cb	PTR FTN(PTR void ,)enum E363 size(2) Largest target is 1
		 -> rd1RegCompleteHandler(), rd2RegCompleteHandler(), rdBlkRegCompleteHandler(), wr1RegCompleteHandler(), 
		 -> wr2RegCompleteHandler(), NULL(), 

    I2C_SetCallback@ptr	PTR void  size(2) Largest target is 5
		 -> I2C_Read1ByteRegister@returnValue(BANK0[1]), I2C_Read2ByteRegister@returnValue(BANK0[2]), I2C_ReadDataBlock@bufferBlock(COMRAM[4]), I2C_Write1ByteRegister@data(BANK0[1]), 
		 -> I2C_Write2ByteRegister@data(COMRAM[2]), NULL(NULL[0]), 

    I2C_SetDataCompleteCallback@cb	PTR FTN(PTR void ,)enum E363 size(2) Largest target is 1
		 -> rd1RegCompleteHandler(), rd2RegCompleteHandler(), rdBlkRegCompleteHandler(), wr1RegCompleteHandler(), 
		 -> wr2RegCompleteHandler(), NULL(), 

    I2C_SetDataCompleteCallback@ptr	PTR void  size(2) Largest target is 5
		 -> I2C_Read1ByteRegister@returnValue(BANK0[1]), I2C_Read2ByteRegister@returnValue(BANK0[2]), I2C_ReadDataBlock@bufferBlock(COMRAM[4]), I2C_Write1ByteRegister@data(BANK0[1]), 
		 -> I2C_Write2ByteRegister@data(COMRAM[2]), NULL(NULL[0]), 

    I2C_SetInterruptHandler@InterruptHandler	PTR FTN()void  size(2) Largest target is 1
		 -> I2C_MasterIsr(), 

    I2C_Status$callbackPayload	PTR void [6] size(2) Largest target is 5
		 -> I2C_Read1ByteRegister@returnValue(BANK0[1]), I2C_Read2ByteRegister@returnValue(BANK0[2]), I2C_ReadDataBlock@bufferBlock(COMRAM[4]), I2C_Write1ByteRegister@data(BANK0[1]), 
		 -> I2C_Write2ByteRegister@data(COMRAM[2]), NULL(NULL[0]), 

    I2C_Status$callbackTable	PTR FTN(PTR void ,)enum E363[6] size(2) Largest target is 1
		 -> I2C_CallbackReturnReset(), I2C_CallbackReturnStop(), rd1RegCompleteHandler(), rd2RegCompleteHandler(), 
		 -> rdBlkRegCompleteHandler(), wr1RegCompleteHandler(), wr2RegCompleteHandler(), NULL(), 

    I2C_Status$data_ptr	PTR unsigned char  size(2) Largest target is 5
		 -> bufferBlock$data(COMRAM[3]), I2C_Read1ByteRegister@reg(BANK0[1]), I2C_Read1ByteRegister@returnValue(BANK0[1]), I2C_Read1ByteRegister@returnValue$data(COMRAM[3]), 
		 -> I2C_Read2ByteRegister@reg(BANK0[1]), I2C_Read2ByteRegister@returnValue(BANK0[2]), I2C_Read2ByteRegister@returnValue$data(COMRAM[3]), I2C_ReadDataBlock@bufferBlock(COMRAM[4]), 
		 -> I2C_ReadDataBlock@reg(COMRAM[1]), I2C_Write1ByteRegister@data(BANK0[1]), I2C_Write1ByteRegister@data$data(COMRAM[3]), I2C_Write1ByteRegister@reg(BANK0[1]), 
		 -> I2C_Write2ByteRegister@data(COMRAM[2]), I2C_Write2ByteRegister@data$data(COMRAM[3]), I2C_Write2ByteRegister@reg(COMRAM[1]), NULL(NULL[0]), 

    I2C_Write1ByteRegister@data$data	PTR unsigned char  size(2) Largest target is 0

    I2C_Write2ByteRegister@data$data	PTR unsigned char  size(2) Largest target is 0

    MSSP_InterruptHandler	PTR FTN()void  size(2) Largest target is 1
		 -> I2C_MasterIsr(), NULL(), 

    NULL$0	PTR void  size(2) Largest target is 5
		 -> I2C_Read1ByteRegister@returnValue(BANK0[1]), I2C_Read2ByteRegister@returnValue(BANK0[2]), I2C_ReadDataBlock@bufferBlock(COMRAM[4]), I2C_Write1ByteRegister@data(BANK0[1]), 
		 -> I2C_Write2ByteRegister@data(COMRAM[2]), NULL(NULL[0]), 

    rd1RegCompleteHandler@ptr	PTR void  size(2) Largest target is 5
		 -> I2C_Read1ByteRegister@returnValue(BANK0[1]), I2C_Read2ByteRegister@returnValue(BANK0[2]), I2C_ReadDataBlock@bufferBlock(COMRAM[4]), I2C_Write1ByteRegister@data(BANK0[1]), 
		 -> I2C_Write2ByteRegister@data(COMRAM[2]), NULL(NULL[0]), 

    rd2RegCompleteHandler@ptr	PTR void  size(2) Largest target is 5
		 -> I2C_Read1ByteRegister@returnValue(BANK0[1]), I2C_Read2ByteRegister@returnValue(BANK0[2]), I2C_ReadDataBlock@bufferBlock(COMRAM[4]), I2C_Write1ByteRegister@data(BANK0[1]), 
		 -> I2C_Write2ByteRegister@data(COMRAM[2]), NULL(NULL[0]), 

    rdBlkRegCompleteHandler@ptr	PTR void  size(2) Largest target is 5
		 -> I2C_Read1ByteRegister@returnValue(BANK0[1]), I2C_Read2ByteRegister@returnValue(BANK0[2]), I2C_ReadDataBlock@bufferBlock(COMRAM[4]), I2C_Write1ByteRegister@data(BANK0[1]), 
		 -> I2C_Write2ByteRegister@data(COMRAM[2]), NULL(NULL[0]), 

    rdBlkRegCompleteHandler@ptr$data	PTR unsigned char  size(2) Largest target is 0

    S277$0$0	PTR void  size(2) Largest target is 5
		 -> I2C_Read1ByteRegister@returnValue(BANK0[1]), I2C_Read2ByteRegister@returnValue(BANK0[2]), I2C_ReadDataBlock@bufferBlock(COMRAM[4]), I2C_Write1ByteRegister@data(BANK0[1]), 
		 -> I2C_Write2ByteRegister@data(COMRAM[2]), NULL(NULL[0]), 

    S277$callbackPayload	PTR void [6] size(2) Largest target is 5
		 -> I2C_Read1ByteRegister@returnValue(BANK0[1]), I2C_Read2ByteRegister@returnValue(BANK0[2]), I2C_ReadDataBlock@bufferBlock(COMRAM[4]), I2C_Write1ByteRegister@data(BANK0[1]), 
		 -> I2C_Write2ByteRegister@data(COMRAM[2]), NULL(NULL[0]), 

    S277$callbackTable	PTR FTN(PTR void ,)enum E363[6] size(2) Largest target is 1
		 -> I2C_CallbackReturnReset(), I2C_CallbackReturnStop(), rd1RegCompleteHandler(), rd2RegCompleteHandler(), 
		 -> rdBlkRegCompleteHandler(), wr1RegCompleteHandler(), wr2RegCompleteHandler(), NULL(), 

    S277$data_ptr	PTR unsigned char  size(2) Largest target is 5
		 -> I2C_Read1ByteRegister@reg(BANK0[1]), I2C_Read1ByteRegister@returnValue(BANK0[1]), I2C_Read2ByteRegister@reg(BANK0[1]), I2C_Read2ByteRegister@returnValue(BANK0[2]), 
		 -> I2C_ReadDataBlock@bufferBlock(COMRAM[4]), I2C_ReadDataBlock@reg(COMRAM[1]), I2C_Write1ByteRegister@data(BANK0[1]), I2C_Write1ByteRegister@reg(BANK0[1]), 
		 -> I2C_Write2ByteRegister@data(COMRAM[2]), I2C_Write2ByteRegister@reg(COMRAM[1]), NULL(NULL[0]), 

    S97$data	PTR unsigned char  size(2) Largest target is 0

    UART_LOGGINGDATA_send_string@string	PTR unsigned char  size(2) Largest target is 18
		 -> DATE_PACK(BANK0[18]), STR_1(CODE[7]), STR_2(CODE[7]), 

    wr1RegCompleteHandler@ptr	PTR void  size(2) Largest target is 5
		 -> I2C_Read1ByteRegister@returnValue(BANK0[1]), I2C_Read2ByteRegister@returnValue(BANK0[2]), I2C_ReadDataBlock@bufferBlock(COMRAM[4]), I2C_Write1ByteRegister@data(BANK0[1]), 
		 -> I2C_Write2ByteRegister@data(COMRAM[2]), NULL(NULL[0]), 

    wr2RegCompleteHandler@ptr	PTR void  size(2) Largest target is 5
		 -> I2C_Read1ByteRegister@returnValue(BANK0[1]), I2C_Read2ByteRegister@returnValue(BANK0[2]), I2C_ReadDataBlock@bufferBlock(COMRAM[4]), I2C_Write1ByteRegister@data(BANK0[1]), 
		 -> I2C_Write2ByteRegister@data(COMRAM[2]), NULL(NULL[0]), 


Critical Paths under _main in COMRAM

    None.

Critical Paths under _INTERRUPT_InterruptManagerHigh in COMRAM

    _I2C_MasterIsr->_I2C_MasterFsm
    _I2C_MasterFsm->_I2C_DO_ADDRESS_NACK
    _I2C_MasterFsm->_I2C_DO_RX
    _I2C_MasterFsm->_I2C_DO_TX
    _I2C_MasterFsm->_I2C_DO_TX_EMPTY
    _I2C_DO_TX_EMPTY->_rdBlkRegCompleteHandler
    _I2C_DO_TX->_rdBlkRegCompleteHandler
    _I2C_DO_SEND_ADR_WRITE->_I2C_MasterSendTxData
    _I2C_DO_RX->_rdBlkRegCompleteHandler
    _I2C_DO_ADDRESS_NACK->_rdBlkRegCompleteHandler
    _wr2RegCompleteHandler->i2_I2C_SetDataCompleteCallback
    _wr1RegCompleteHandler->i2_I2C_SetDataCompleteCallback
    _rdBlkRegCompleteHandler->i2_I2C_SetDataCompleteCallback
    _rd2RegCompleteHandler->i2_I2C_SetDataCompleteCallback
    _rd1RegCompleteHandler->i2_I2C_SetDataCompleteCallback
    i2_I2C_SetDataCompleteCallback->i2_I2C_SetCallback

Critical Paths under _main in BANK0

    _main->_TEMSENSOR_TC74_Read_Temp
    _TEMSENSOR_TC74_Read_Temp->_I2C_Read2ByteRegister
    _I2C_Read2ByteRegister->_I2C_SetAddressNackCallback
    _I2C_Read2ByteRegister->_I2C_SetDataCompleteCallback
    _EUSART_Initialize->_EUSART_SetErrorHandler
    _EUSART_Initialize->_EUSART_SetFramingErrorHandler
    _EUSART_Initialize->_EUSART_SetOverrunErrorHandler
    _RealTimeClockDS1307_Get_Date_Time->_I2C_Read1ByteRegister
    _Print_DATE->_UART_LOGGINGDATA_send_string
    _UART_LOGGINGDATA_send_string->_EUSART_Write
    _EEPROM_240C02C_Write_Byte->_I2C_Write1ByteRegister
    _I2C_Write1ByteRegister->_I2C_SetAddressNackCallback
    _I2C_Write1ByteRegister->_I2C_SetDataCompleteCallback
    _EEPROM_240C02C_Read_Byte->_I2C_Read1ByteRegister
    _I2C_Read1ByteRegister->_I2C_SetAddressNackCallback
    _I2C_Read1ByteRegister->_I2C_SetDataCompleteCallback
    _I2C_SetDataCompleteCallback->_I2C_SetCallback
    _I2C_SetAddressNackCallback->_I2C_SetCallback
    _I2C_Open->_I2C_SetInterruptHandler
    _I2C_MasterWrite->_I2C_MasterOperation

Critical Paths under _INTERRUPT_InterruptManagerHigh in BANK0

    None.

Critical Paths under _main in BANK1

    None.

Critical Paths under _INTERRUPT_InterruptManagerHigh in BANK1

    None.

Critical Paths under _main in BANK2

    None.

Critical Paths under _INTERRUPT_InterruptManagerHigh in BANK2

    None.

Critical Paths under _main in BANK3

    None.

Critical Paths under _INTERRUPT_InterruptManagerHigh in BANK3

    None.

Critical Paths under _main in BANK4

    None.

Critical Paths under _INTERRUPT_InterruptManagerHigh in BANK4

    None.

Critical Paths under _main in BANK5

    None.

Critical Paths under _INTERRUPT_InterruptManagerHigh in BANK5

    None.

Critical Paths under _main in BANK6

    None.

Critical Paths under _INTERRUPT_InterruptManagerHigh in BANK6

    None.

Critical Paths under _main in BANK7

    None.

Critical Paths under _INTERRUPT_InterruptManagerHigh in BANK7

    None.

Critical Paths under _main in BANK8

    None.

Critical Paths under _INTERRUPT_InterruptManagerHigh in BANK8

    None.

Critical Paths under _main in BANK9

    None.

Critical Paths under _INTERRUPT_InterruptManagerHigh in BANK9

    None.

Critical Paths under _main in BANK10

    None.

Critical Paths under _INTERRUPT_InterruptManagerHigh in BANK10

    None.

Critical Paths under _main in BANK11

    None.

Critical Paths under _INTERRUPT_InterruptManagerHigh in BANK11

    None.

Critical Paths under _main in BANK12

    None.

Critical Paths under _INTERRUPT_InterruptManagerHigh in BANK12

    None.

Critical Paths under _main in BANK13

    None.

Critical Paths under _INTERRUPT_InterruptManagerHigh in BANK13

    None.

Critical Paths under _main in BANK14

    None.

Critical Paths under _INTERRUPT_InterruptManagerHigh in BANK14

    None.

Critical Paths under _main in BANK15

    None.

Critical Paths under _INTERRUPT_InterruptManagerHigh in BANK15

    None.

Call Graph Tables:

 ---------------------------------------------------------------------------------
 (Depth) Function   	        Calls       Base Space   Used Autos Params    Refs
 ---------------------------------------------------------------------------------
 (0) _main                                                 0     0      0   40303
           _EEPROM_240C02C_Read_Byte
          _EEPROM_240C02C_Write_Byte
             _I2C_Write1ByteRegister
                         _Print_DATE
  _RealTimeClockDS1307_Get_Date_Time
                  _SYSTEM_Initialize
           _TEMSENSOR_TC74_Read_Temp
       _UART_LOGGINGDATA_send_string
 ---------------------------------------------------------------------------------
 (1) _TEMSENSOR_TC74_Read_Temp                             2     2      0    7394
                                             17 BANK0      2     2      0
              _I2C_Read2ByteRegister
 ---------------------------------------------------------------------------------
 (2) _I2C_Read2ByteRegister                                8     6      2    7326
                                              9 BANK0      8     6      2
                          _I2C_Close
                    _I2C_MasterWrite
                           _I2C_Open
         _I2C_SetAddressNackCallback
                      _I2C_SetBuffer
        _I2C_SetDataCompleteCallback
 ---------------------------------------------------------------------------------
 (1) _SYSTEM_Initialize                                    0     0      0     363
                  _EUSART_Initialize
                     _I2C_Initialize
               _INTERRUPT_Initialize
              _OSCILLATOR_Initialize
             _PIN_MANAGER_Initialize
 ---------------------------------------------------------------------------------
 (2) _PIN_MANAGER_Initialize                               0     0      0       0
 ---------------------------------------------------------------------------------
 (2) _OSCILLATOR_Initialize                                0     0      0       0
 ---------------------------------------------------------------------------------
 (2) _INTERRUPT_Initialize                                 0     0      0       0
 ---------------------------------------------------------------------------------
 (2) _I2C_Initialize                                       0     0      0       0
 ---------------------------------------------------------------------------------
 (2) _EUSART_Initialize                                    0     0      0     363
             _EUSART_SetErrorHandler
      _EUSART_SetFramingErrorHandler
      _EUSART_SetOverrunErrorHandler
 ---------------------------------------------------------------------------------
 (3) _EUSART_SetOverrunErrorHandler                        2     0      2     121
                                              0 BANK0      2     0      2
 ---------------------------------------------------------------------------------
 (3) _EUSART_SetFramingErrorHandler                        2     0      2     121
                                              0 BANK0      2     0      2
 ---------------------------------------------------------------------------------
 (3) _EUSART_SetErrorHandler                               2     0      2     121
                                              0 BANK0      2     0      2
 ---------------------------------------------------------------------------------
 (1) _RealTimeClockDS1307_Get_Date_Time                    6     0      6    7835
                                             12 BANK0      6     0      6
              _I2C_Read1ByteRegister
 ---------------------------------------------------------------------------------
 (1) _Print_DATE                                           0     0      0     676
       _UART_LOGGINGDATA_send_string
 ---------------------------------------------------------------------------------
 (1) _UART_LOGGINGDATA_send_string                         7     4      3     676
                                              1 BANK0      7     4      3
                       _EUSART_Write
 ---------------------------------------------------------------------------------
 (2) _EUSART_Write                                         1     1      0      31
                                              0 BANK0      1     1      0
 ---------------------------------------------------------------------------------
 (1) _EEPROM_240C02C_Write_Byte                            3     1      2    7804
                                             12 BANK0      3     1      2
             _I2C_Write1ByteRegister
 ---------------------------------------------------------------------------------
 (1) _I2C_Write1ByteRegister                               3     1      2    7531
                                              9 BANK0      3     1      2
                          _I2C_Close
                    _I2C_MasterWrite
                           _I2C_Open
         _I2C_SetAddressNackCallback
                      _I2C_SetBuffer
        _I2C_SetDataCompleteCallback
 ---------------------------------------------------------------------------------
 (1) _EEPROM_240C02C_Read_Byte                             3     2      1    8024
                                             12 BANK0      3     2      1
              _I2C_Read1ByteRegister
 ---------------------------------------------------------------------------------
 (2) _I2C_Read1ByteRegister                                3     2      1    7835
                                              9 BANK0      3     2      1
                          _I2C_Close
                    _I2C_MasterWrite
                           _I2C_Open
         _I2C_SetAddressNackCallback
                      _I2C_SetBuffer
        _I2C_SetDataCompleteCallback
 ---------------------------------------------------------------------------------
 (3) _I2C_SetDataCompleteCallback                          4     0      4    2629
                                              5 BANK0      4     0      4
                    _I2C_SetCallback
 ---------------------------------------------------------------------------------
 (3) _I2C_SetBuffer                                        4     0      4    1872
                                              0 BANK0      4     0      4
 ---------------------------------------------------------------------------------
 (3) _I2C_SetAddressNackCallback                           4     0      4    2259
                                              5 BANK0      4     0      4
                    _I2C_SetCallback
 ---------------------------------------------------------------------------------
 (4) _I2C_SetCallback                                      5     1      4    1117
                                              0 BANK0      5     1      4
 ---------------------------------------------------------------------------------
 (3) _I2C_Open                                             2     2      0     189
                                              2 BANK0      2     2      0
                 _I2C_MasterClearIrq
                _I2C_MasterEnableIrq
                     _I2C_MasterOpen
            _I2C_SetInterruptHandler
 ---------------------------------------------------------------------------------
 (4) _I2C_SetInterruptHandler                              2     0      2     121
                                              0 BANK0      2     0      2
 ---------------------------------------------------------------------------------
 (4) _I2C_MasterOpen                                       0     0      0       0
 ---------------------------------------------------------------------------------
 (4) _I2C_MasterEnableIrq                                  0     0      0       0
 ---------------------------------------------------------------------------------
 (3) _I2C_MasterWrite                                      0     0      0      68
                _I2C_MasterOperation
 ---------------------------------------------------------------------------------
 (4) _I2C_MasterOperation                                  2     2      0      68
                                              0 BANK0      2     2      0
                    _I2C_MasterStart
 ---------------------------------------------------------------------------------
 (5) _I2C_MasterStart                                      0     0      0       0
 ---------------------------------------------------------------------------------
 (3) _I2C_Close                                            1     1      0      37
                                              0 BANK0      1     1      0
                 _I2C_MasterClearIrq
                    _I2C_MasterClose
               _I2C_MasterDisableIrq
 ---------------------------------------------------------------------------------
 (4) _I2C_MasterDisableIrq                                 0     0      0       0
 ---------------------------------------------------------------------------------
 (4) _I2C_MasterClose                                      0     0      0       0
 ---------------------------------------------------------------------------------
 (4) _I2C_MasterClearIrq                                   0     0      0       0
 ---------------------------------------------------------------------------------
 Estimated maximum stack depth 5
 ---------------------------------------------------------------------------------
 (Depth) Function   	        Calls       Base Space   Used Autos Params    Refs
 ---------------------------------------------------------------------------------
 (6) _INTERRUPT_InterruptManagerHigh                      10    10      0   24130
                                             17 COMRAM    10    10      0
                                NULL *
                      _I2C_MasterIsr *
 ---------------------------------------------------------------------------------
 (7) _I2C_MasterIsr                                        0     0      0   24130
                      _I2C_MasterFsm
 ---------------------------------------------------------------------------------
 (8) _I2C_MasterFsm                                        3     3      0   24130
                                             14 COMRAM     3     3      0
                _I2C_DO_ADDRESS_NACK *
                        _I2C_DO_IDLE *
                        _I2C_DO_RCEN *
                       _I2C_DO_RESET *
                          _I2C_DO_RX *
                      _I2C_DO_RX_ACK *
             _I2C_DO_RX_NACK_RESTART *
                _I2C_DO_RX_NACK_STOP *
               _I2C_DO_SEND_ADR_READ *
              _I2C_DO_SEND_ADR_WRITE *
                _I2C_DO_SEND_RESTART *
           _I2C_DO_SEND_RESTART_READ *
          _I2C_DO_SEND_RESTART_WRITE *
                   _I2C_DO_SEND_STOP *
                          _I2C_DO_TX *
                    _I2C_DO_TX_EMPTY *
                   _I2C_MasterIsNack
               i2_I2C_MasterClearIrq
 ---------------------------------------------------------------------------------
 (9) i2_I2C_MasterClearIrq                                 0     0      0       0
 ---------------------------------------------------------------------------------
 (9) _I2C_DO_TX_EMPTY                                      2     2      0    6016
                                             12 COMRAM     2     2      0
                                NULL *
            _I2C_CallbackReturnReset *
             _I2C_CallbackReturnStop *
                _I2C_DO_SEND_RESTART
                   _I2C_DO_SEND_STOP
                   _I2C_MasterSetIrq
              _rd1RegCompleteHandler *
              _rd2RegCompleteHandler *
            _rdBlkRegCompleteHandler *
              _wr1RegCompleteHandler *
              _wr2RegCompleteHandler *
 ---------------------------------------------------------------------------------
 (10) _I2C_MasterSetIrq                                    0     0      0       0
 ---------------------------------------------------------------------------------
 (9) _I2C_DO_TX                                            2     2      0    6038
                                             12 COMRAM     2     2      0
                                NULL *
            _I2C_CallbackReturnReset *
             _I2C_CallbackReturnStop *
           _I2C_DO_SEND_RESTART_READ
          _I2C_DO_SEND_RESTART_WRITE
                   _I2C_DO_SEND_STOP
                   _I2C_MasterIsNack
               _I2C_MasterSendTxData
              _rd1RegCompleteHandler *
              _rd2RegCompleteHandler *
            _rdBlkRegCompleteHandler *
              _wr1RegCompleteHandler *
              _wr2RegCompleteHandler *
 ---------------------------------------------------------------------------------
 (9) _I2C_MasterIsNack                                     0     0      0       0
 ---------------------------------------------------------------------------------
 (10) _I2C_DO_SEND_RESTART_WRITE                           0     0      0       0
            _I2C_MasterEnableRestart
 ---------------------------------------------------------------------------------
 (10) _I2C_DO_SEND_RESTART_READ                            0     0      0       0
            _I2C_MasterEnableRestart
 ---------------------------------------------------------------------------------
 (9) _I2C_DO_SEND_ADR_WRITE                                0     0      0      22
               _I2C_MasterSendTxData
 ---------------------------------------------------------------------------------
 (9) _I2C_DO_SEND_ADR_READ                                 0     0      0      22
               _I2C_MasterSendTxData
 ---------------------------------------------------------------------------------
 (10) _I2C_MasterSendTxData                                1     1      0      22
                                              0 COMRAM     1     1      0
 ---------------------------------------------------------------------------------
 (9) _I2C_DO_RX_ACK                                        0     0      0       0
                  _I2C_MasterSendAck
 ---------------------------------------------------------------------------------
 (9) _I2C_DO_RX                                            2     2      0    6016
                                             12 COMRAM     2     2      0
                                NULL *
            _I2C_CallbackReturnReset *
             _I2C_CallbackReturnStop *
             _I2C_DO_RX_NACK_RESTART
                _I2C_DO_RX_NACK_STOP
                _I2C_MasterGetRxData
                  _I2C_MasterSendAck
              _rd1RegCompleteHandler *
              _rd2RegCompleteHandler *
            _rdBlkRegCompleteHandler *
              _wr1RegCompleteHandler *
              _wr2RegCompleteHandler *
 ---------------------------------------------------------------------------------
 (10) _I2C_MasterSendAck                                   0     0      0       0
 ---------------------------------------------------------------------------------
 (10) _I2C_MasterGetRxData                                 0     0      0       0
 ---------------------------------------------------------------------------------
 (9) _I2C_DO_RX_NACK_STOP                                  0     0      0       0
                 _I2C_MasterSendNack
 ---------------------------------------------------------------------------------
 (9) _I2C_DO_RX_NACK_RESTART                               0     0      0       0
                 _I2C_MasterSendNack
 ---------------------------------------------------------------------------------
 (10) _I2C_MasterSendNack                                  0     0      0       0
 ---------------------------------------------------------------------------------
 (9) _I2C_DO_RESET                                         0     0      0       0
 ---------------------------------------------------------------------------------
 (9) _I2C_DO_RCEN                                          0     0      0       0
                  _I2C_MasterStartRx
 ---------------------------------------------------------------------------------
 (10) _I2C_MasterStartRx                                   0     0      0       0
 ---------------------------------------------------------------------------------
 (9) _I2C_DO_IDLE                                          0     0      0       0
 ---------------------------------------------------------------------------------
 (9) _I2C_DO_ADDRESS_NACK                                  2     2      0    6016
                                             12 COMRAM     2     2      0
                                NULL *
            _I2C_CallbackReturnReset *
             _I2C_CallbackReturnStop *
                _I2C_DO_SEND_RESTART
                   _I2C_DO_SEND_STOP
              _rd1RegCompleteHandler *
              _rd2RegCompleteHandler *
            _rdBlkRegCompleteHandler *
              _wr1RegCompleteHandler *
              _wr2RegCompleteHandler *
 ---------------------------------------------------------------------------------
 (10) _wr2RegCompleteHandler                               2     0      2    1142
                                              9 COMRAM     2     0      2
                    i2_I2C_SetBuffer
      i2_I2C_SetDataCompleteCallback
 ---------------------------------------------------------------------------------
 (10) _wr1RegCompleteHandler                               2     0      2    1142
                                              9 COMRAM     2     0      2
                    i2_I2C_SetBuffer
      i2_I2C_SetDataCompleteCallback
 ---------------------------------------------------------------------------------
 (10) _rdBlkRegCompleteHandler                             3     1      2    1173
                                              9 COMRAM     3     1      2
                    i2_I2C_SetBuffer
      i2_I2C_SetDataCompleteCallback
 ---------------------------------------------------------------------------------
 (10) _rd2RegCompleteHandler                               2     0      2    1142
                                              9 COMRAM     2     0      2
                    i2_I2C_SetBuffer
      i2_I2C_SetDataCompleteCallback
 ---------------------------------------------------------------------------------
 (10) _rd1RegCompleteHandler                               2     0      2    1142
                                              9 COMRAM     2     0      2
                    i2_I2C_SetBuffer
      i2_I2C_SetDataCompleteCallback
 ---------------------------------------------------------------------------------
 (11) i2_I2C_SetDataCompleteCallback                       4     0      4     699
                                              5 COMRAM     4     0      4
                  i2_I2C_SetCallback
 ---------------------------------------------------------------------------------
 (12) i2_I2C_SetCallback                                   5     1      4     287
                                              0 COMRAM     5     1      4
 ---------------------------------------------------------------------------------
 (11) i2_I2C_SetBuffer                                     4     0      4     412
                                              0 COMRAM     4     0      4
 ---------------------------------------------------------------------------------
 (10) _I2C_DO_SEND_STOP                                    0     0      0       0
                     _I2C_MasterStop
 ---------------------------------------------------------------------------------
 (11) _I2C_MasterStop                                      0     0      0       0
 ---------------------------------------------------------------------------------
 (10) _I2C_DO_SEND_RESTART                                 0     0      0       0
            _I2C_MasterEnableRestart
 ---------------------------------------------------------------------------------
 (11) _I2C_MasterEnableRestart                             0     0      0       0
 ---------------------------------------------------------------------------------
 (10) _I2C_CallbackReturnStop                              2     0      2       0
                                              9 COMRAM     2     0      2
 ---------------------------------------------------------------------------------
 (10) _I2C_CallbackReturnReset                             2     0      2     275
                                              9 COMRAM     2     0      2
 ---------------------------------------------------------------------------------
 (10) NULL(Fake)                                           2     0      2       0
 ---------------------------------------------------------------------------------
 Estimated maximum stack depth 12
 ---------------------------------------------------------------------------------

 Call Graph Graphs:

 _main (ROOT)
   _EEPROM_240C02C_Read_Byte
     _I2C_Read1ByteRegister
       _I2C_Close
         _I2C_MasterClearIrq
         _I2C_MasterClose
         _I2C_MasterDisableIrq
       _I2C_MasterWrite
         _I2C_MasterOperation
           _I2C_MasterStart
       _I2C_Open
         _I2C_MasterClearIrq
         _I2C_MasterEnableIrq
         _I2C_MasterOpen
         _I2C_SetInterruptHandler
       _I2C_SetAddressNackCallback
         _I2C_SetCallback
       _I2C_SetBuffer
       _I2C_SetDataCompleteCallback
         _I2C_SetCallback
   _EEPROM_240C02C_Write_Byte
     _I2C_Write1ByteRegister
       _I2C_Close
       _I2C_MasterWrite
       _I2C_Open
       _I2C_SetAddressNackCallback
       _I2C_SetBuffer
       _I2C_SetDataCompleteCallback
   _I2C_Write1ByteRegister
   _Print_DATE
     _UART_LOGGINGDATA_send_string
       _EUSART_Write
   _RealTimeClockDS1307_Get_Date_Time
     _I2C_Read1ByteRegister
   _SYSTEM_Initialize
     _EUSART_Initialize
       _EUSART_SetErrorHandler
       _EUSART_SetFramingErrorHandler
       _EUSART_SetOverrunErrorHandler
     _I2C_Initialize
     _INTERRUPT_Initialize
     _OSCILLATOR_Initialize
     _PIN_MANAGER_Initialize
   _TEMSENSOR_TC74_Read_Temp
     _I2C_Read2ByteRegister
       _I2C_Close
       _I2C_MasterWrite
       _I2C_Open
       _I2C_SetAddressNackCallback
       _I2C_SetBuffer
       _I2C_SetDataCompleteCallback
   _UART_LOGGINGDATA_send_string

 _INTERRUPT_InterruptManagerHigh (ROOT)
   NULL(Fake) *
   _I2C_MasterIsr *
     _I2C_MasterFsm
       _I2C_DO_ADDRESS_NACK *
         NULL(Fake) *
         _I2C_CallbackReturnReset *
         _I2C_CallbackReturnStop *
         _I2C_DO_SEND_RESTART *
           _I2C_MasterEnableRestart
         _I2C_DO_SEND_STOP *
           _I2C_MasterStop
         _rd1RegCompleteHandler *
           i2_I2C_SetBuffer
           i2_I2C_SetDataCompleteCallback
             i2_I2C_SetCallback
         _rd2RegCompleteHandler *
           i2_I2C_SetBuffer
           i2_I2C_SetDataCompleteCallback
         _rdBlkRegCompleteHandler *
           i2_I2C_SetBuffer
           i2_I2C_SetDataCompleteCallback
         _wr1RegCompleteHandler *
           i2_I2C_SetBuffer
           i2_I2C_SetDataCompleteCallback
         _wr2RegCompleteHandler *
           i2_I2C_SetBuffer
           i2_I2C_SetDataCompleteCallback
       _I2C_DO_IDLE *
       _I2C_DO_RCEN *
         _I2C_MasterStartRx
       _I2C_DO_RESET *
       _I2C_DO_RX *
         NULL(Fake) *
         _I2C_CallbackReturnReset *
         _I2C_CallbackReturnStop *
         _I2C_DO_RX_NACK_RESTART *
           _I2C_MasterSendNack
         _I2C_DO_RX_NACK_STOP *
           _I2C_MasterSendNack
         _I2C_MasterGetRxData *
         _I2C_MasterSendAck *
         _rd1RegCompleteHandler *
         _rd2RegCompleteHandler *
         _rdBlkRegCompleteHandler *
         _wr1RegCompleteHandler *
         _wr2RegCompleteHandler *
       _I2C_DO_RX_ACK *
         _I2C_MasterSendAck
       _I2C_DO_RX_NACK_RESTART *
       _I2C_DO_RX_NACK_STOP *
       _I2C_DO_SEND_ADR_READ *
         _I2C_MasterSendTxData
       _I2C_DO_SEND_ADR_WRITE *
         _I2C_MasterSendTxData
       _I2C_DO_SEND_RESTART *
       _I2C_DO_SEND_RESTART_READ *
         _I2C_MasterEnableRestart
       _I2C_DO_SEND_RESTART_WRITE *
         _I2C_MasterEnableRestart
       _I2C_DO_SEND_STOP *
       _I2C_DO_TX *
         NULL(Fake) *
         _I2C_CallbackReturnReset *
         _I2C_CallbackReturnStop *
         _I2C_DO_SEND_RESTART_READ *
         _I2C_DO_SEND_RESTART_WRITE *
         _I2C_DO_SEND_STOP *
         _I2C_MasterIsNack *
         _I2C_MasterSendTxData *
         _rd1RegCompleteHandler *
         _rd2RegCompleteHandler *
         _rdBlkRegCompleteHandler *
         _wr1RegCompleteHandler *
         _wr2RegCompleteHandler *
       _I2C_DO_TX_EMPTY *
         NULL(Fake) *
         _I2C_CallbackReturnReset *
         _I2C_CallbackReturnStop *
         _I2C_DO_SEND_RESTART *
         _I2C_DO_SEND_STOP *
         _I2C_MasterSetIrq *
         _rd1RegCompleteHandler *
         _rd2RegCompleteHandler *
         _rdBlkRegCompleteHandler *
         _wr1RegCompleteHandler *
         _wr2RegCompleteHandler *
       _I2C_MasterIsNack *
       i2_I2C_MasterClearIrq *

 Address spaces:
Name               Size   Autos  Total    Cost      Usage
BIGRAM             F5F      0       0      51        0.0%
EEDATA             400      0       0       0        0.0%
BITBANK14          100      0       0      32        0.0%
BANK14             100      0       0      33        0.0%
BITBANK13          100      0       0      30        0.0%
BANK13             100      0       0      31        0.0%
BITBANK12          100      0       0      28        0.0%
BANK12             100      0       0      29        0.0%
BITBANK11          100      0       0      26        0.0%
BANK11             100      0       0      27        0.0%
BITBANK10          100      0       0      24        0.0%
BANK10             100      0       0      25        0.0%
BITBANK9           100      0       0      22        0.0%
BANK9              100      0       0      23        0.0%
BITBANK8           100      0       0      20        0.0%
BANK8              100      0       0      21        0.0%
BITBANK7           100      0       0      18        0.0%
BANK7              100      0       0      19        0.0%
BITBANK6           100      0       0      16        0.0%
BANK6              100      0       0      17        0.0%
BITBANK5           100      0       0      14        0.0%
BANK5              100      0       0      15        0.0%
BITBANK4           100      0       0      12        0.0%
BANK4              100      0       0      13        0.0%
BITBANK3           100      0       0      10        0.0%
BANK3              100      0       0      11        0.0%
BITBANK2           100      0       0       8        0.0%
BANK2              100      0       0       9        0.0%
BITBANK1           100      0       0       6        0.0%
BANK1              100      0       0       7        0.0%
BITBANK0            A0      0       0       4        0.0%
BANK0               A0     13      31       5       30.6%
BITBANK15           60      0       0      34        0.0%
BANK15              60      0       0      35        0.0%
BITCOMRAM           5E      0       0       0        0.0%
COMRAM              5E     1B      4B       1       79.8%
BITBIGSFRhll        1D      0       0      38        0.0%
BITBIGSFRllllll     1C      0       0      49        0.0%
BITBIGSFRlhlhhh      C      0       0      41        0.0%
BITBIGSFRllllh       9      0       0      47        0.0%
BITBIGSFRlhlhhh      7      0       0      42        0.0%
BITBIGSFRhh          7      0       0      36        0.0%
BITBIGSFRlhhl        6      0       0      40        0.0%
BITBIGSFRllhh        4      0       0      45        0.0%
BITBIGSFRllhll       4      0       0      46        0.0%
BITBIGSFRlhlhl       3      0       0      43        0.0%
BITBIGSFRlhhh        2      0       0      39        0.0%
BITBIGSFRhlh         2      0       0      37        0.0%
BITBIGSFRlllllh      1      0       0      48        0.0%
BITBIGSFRlhlll       1      0       0      44        0.0%
BIGSFR               0      0       0     200        0.0%
BITSFR               0      0       0     200        0.0%
SFR                  0      0       0     200        0.0%
STACK                0      0       0       2        0.0%
NULL                 0      0       0       0        0.0%
ABS                  0      0      7C      50        0.0%
DATA                 0      0      7C       3        0.0%
CODE                 0      0       0       0        0.0%


Microchip Technology PIC18 Macro Assembler V2.45 build 20230818022343 
Symbol Table                                                                                   Tue Jul 23 23:50:25 2024

                       ??_I2C_DO_SEND_ADR_READ 0031                        ??_I2C_DO_SEND_ADR_WRITE 0032  
                                  _SSPSTATbits 0FC7                                             l35 13E0  
                                           l44 1362                                             l53 1544  
                ?_UART_LOGGINGDATA_send_string 0079                          ??_I2C_DO_SEND_RESTART 0031  
                                          l123 1AB2                                            l126 1B14  
                                          l243 18D2                                            l235 1ADC  
                                          l404 19E8                                            l262 19C6  
                                          l407 1BCC                                            l255 1B6A  
                                          l239 1232                                            l271 1A84  
                                          l280 1B3C                                            l425 1BC4  
                                          l249 1832                                            l265 1A6C  
                                          l452 1BC8                                            l285 15AE  
                                          l446 1BC0                                            l710 12D2  
                                          l455 1BD0                                            l707 1616  
                                          l563 18A4                                            l661 1A2A  
                                          l725 1746                                            l637 17EE  
                                          l717 1A24                                            l664 1A3C  
                                          l585 1B62                                            l682 1B32  
                                          l691 1AC8                                            l676 1B28  
                                          l694 1A54                                            l679 1B1E  
                       fp__I2C_DO_RX_NACK_STOP 0000                 ?_EUSART_SetFramingErrorHandler 0078  
                                          tosl 0FFD                                            wreg 0FE8  
                 ??_I2C_SetAddressNackCallback 0081                         _I2C_Write1ByteRegister 14D2  
                     ??_I2C_CallbackReturnStop 003C                                   _I2C_DO_RESET 1B3E  
                      ??_rd2RegCompleteHandler 003C                                           l3101 19E6  
                                         l3111 17F4                                           l3121 181E  
                                         l3113 17FA                                           l3105 1BBE  
                                         l3201 11B0                                           l3107 1BC6  
                                         l3035 1BC2                                           l3123 1826  
                                         l3115 1808                                           l3211 11C2  
                                         l3203 11B2                                           l3131 154A  
                                         l3109 1BCA                                           l3125 182A  
                                         l3117 180A                                           l3221 11EA  
                                         l3213 11CA                                           l3205 11B4  
                                         l3133 155E                                           l3119 180E  
                                         l3127 182E                                           l3231 1212  
                                         l3223 11F2                                           l3215 11D2  
                                         l3207 11B8                                           l3135 158A  
                                         l3233 121E                                           l3225 11FA  
                                         l3217 11DA                                           l3209 11C0  
                                         l3241 1230                                           l3235 1222  
                                         l3227 1202                                           l3219 11E2  
                                         l3251 19BC                                           l3411 1A2A  
                                         l3261 18A6                                           l3093 1B34  
                                         l3237 1226                                           l3229 120A  
                                         l3253 19C4                                           l3245 1A56  
                                         l3421 139A                                           l3413 1A38  
                                         l3405 1B20                                           l3095 1BCE  
                                         l3271 18CE                                           l3263 18AC  
                                         l3239 122A                                           l3255 1A6E  
                                         l3247 19A6                                           l3423 13AE  
                                         l3415 1368                                           l3511 1726  
                                         l3407 1B16                                           l3265 18BA  
                                         l3257 1B64                                           l3097 19C8  
                                         l3193 1196                                           l3249 19B4  
                                         l3425 13C4                                           l3417 136E  
                                         l3513 172A                                           l3505 16E4  
                                         l3409 1B2A                                           l3521 1AAA  
                                         l3441 1322                                           l3433 12D8  
                                         l3267 18BE                                           l3099 19D6  
                                         l3195 119C                                           l3427 13C8  
                                         l3419 1386                                           l3531 1A42  
                                         l3451 14D6                                           l3507 16FA  
                                         l3523 1AAE                                           l3515 1A9E  
                                         l3443 1338                                           l3435 12E2  
                                         l3269 18CA                                           l3197 11AA  
                                         l3429 13DC                                           l3533 1A52  
                                         l3461 152C                                           l3453 14D6  
                                         l3509 1720                                           l3517 1AA2  
                                         l3445 133C                                           l3437 12FA  
                                         l3701 14B2                                           l3199 11AE  
                                         l3463 1530                                           l3455 14EE  
                                         l3527 1AB8                                           l3551 125A  
                                         l3543 1234                                           l3471 1876  
                                         l3519 1AA6                                           l3447 1350  
                                         l3439 130E                                           l3703 14BA  
                                         l3529 1A42                                           l3457 1502  
                                         l3561 1296                                           l3553 126E  
                                         l3545 1246                                           l3537 15B0  
                                         l3465 1B5C                                           l3481 18A2  
                                         l3473 188E                                           l3459 1516  
                                         l3571 12C2                                           l3563 129A  
                                         l3555 1272                                           l3547 124A  
                                         l3539 1604                                           l3491 17DC  
                                         l3467 1ACA                                           l3483 1B0C  
                                         l3475 1890                                           l3565 12A2  
                                         l3557 127A                                           l3549 1252  
                                         l3493 17EA                                           l3485 17AC  
                                         l3469 1ADA                                           l3477 1896  
                                         l3573 1A10                                           l3567 12AA  
                                         l3559 1282                                           l3487 17C0  
                                         l3479 1898                                           l3575 1A10  
                                         l3569 12AE                                           l3489 17CE  
                                         l3577 1A22                                           l3681 145C  
                                         l3691 1468                                           l3683 1460  
                                         l3693 147E                                           l3685 1462  
                                         l3695 148E                                           l3687 1464  
                                         l3697 149C                                           l3689 1466  
                                         l3699 14AE                                           STR_1 1028  
                                         STR_2 1021                                           u1100 19D6  
                                         u1101 19D2                                           u1110 1808  
                                         u1111 1804                                           u1120 181E  
                                         u1121 181A                                           u1130 155E  
                                         u1131 155A                                           u1300 14EE  
                                         u1301 14EA                                           u1150 11AA  
                                         u1310 1544                                           u1151 11A6  
                                         u1311 1540                                           u1160 19B4  
                                         u1161 19B0                                           u1170 18BA  
                                         u1250 1A38                                           u1171 18B6  
                                         u1251 1A34                                           u1260 1386  
                                         u1261 1382                                           _LATA 0F89  
                                         u1270 13DC                                           u1350 171C  
                                         _LATB 0F8A                                           u1271 13D8  
                                         _LATC 0F8B                                           u1360 1746  
                                         u1280 12FA                                           _LATD 0F8C  
                                         u1361 1742                                           u1281 12F6  
                                         _LATE 0F8D                                           u1290 1350  
                                         u1371 160E                                           u1291 134C  
                                         u1531 14A6                                           u1357 1712  
                                         i2l92 1956                                           i2l95 192A  
                                         i2l98 18FE                                           _WPUB 0F7C  
                      ??_wr2RegCompleteHandler 003C                                           _main 145C  
                     ?_I2C_CallbackReturnReset 003A                                           fsr0h 0FEA  
                                         indf0 0FEF                                           fsr2h 0FDA  
                                         fsr0l 0FE9                                           indf2 0FDF  
                                         fsr2l 0FD9                               __end_of_I2C_Open 1234  
                                         btemp 004C                          ?i2_I2C_MasterClearIrq 0031  
                                         prodh 0FF4                                           prodl 0FF3  
                                         start 00B6                        _I2C_SetInterruptHandler 1B34  
                 fp__I2C_DO_SEND_RESTART_WRITE 0000                                   ___param_bank 0000  
         EEPROM_240C02C_Read_Byte@Byte_Address 0084                               ?_I2C_MasterClose 0031  
                                ?_EUSART_Write 0031                               ?_I2C_MasterStart 0031  
                                _I2C_DO_RX_ACK 1B7C                               ?_I2C_MasterWrite 0031  
                __end_of_OSCILLATOR_Initialize 1B16                                          ?_main 0031  
                                        _EEADR 0FA9                                          _ANSEL 0F7E  
                        _I2C_Read1ByteRegister 1364                                          i2l101 1982  
                                        i2l104 1874                                          i2l301 1B0A  
                                        i2l304 10B8                                          i2l320 1122  
                                        i2l321 1190                                          i2l410 1BDC  
                                        i2l307 10EC                                          i2l332 1B50  
                                        i2l413 1BAA                                          i2l262 1A0A  
                                        i2l422 1BE0                                          i2l431 1AF0  
                                        i2l416 1BF0                                          i2l265 1A9C  
                                        i2l434 1BB6                                          i2l338 145A  
                                        i2l362 1B92                                          i2l371 1B7A  
                                        i2l428 1BEC                                          i2l356 1BA2  
                                        i2l292 167C                                          i2l285 16E2  
                                        i2l437 1BBC                                          i2l365 1B8A  
                                        i2l374 1B72                                          i2l391 1BE8  
                                        i2l295 1B5A                                          i2l359 1B9A  
                                        i2l383 17AA                                          i2l455 1BD4  
                                        i2l368 1B82                                          i2l288 1BB0  
                                        i2l377 1B46                                          i2l394 1BE4  
                                        i2l458 1BD8                                          i2l298 1AFE  
                                        i2l590 006A                                          i2l594 008A  
                                        _RCREG 0FAE                                          _RCSTA 0FAB  
                                        _SPBRG 0FAF                              ??_I2C_DO_TX_EMPTY 003D  
                                        _TRISA 0F92                                          _TRISB 0F93  
                                        _TRISC 0F94                                          _TRISD 0F95  
                                        _TRISE 0F96                                          _TXREG 0FAD  
                                        _TXSTA 0FAC                              __end_of_I2C_DO_RX 1192  
                            __end_of_I2C_DO_TX 10EE                              __end_of_I2C_Close 18D4  
                             fp__I2C_MasterIsr 0000                     ??_TEMSENSOR_TC74_Read_Temp 0089  
               I2C_MasterOperation@returnValue 0079                        _I2C_MasterEnableRestart 1BEE  
                                        pclath 0FFA                                          pclatu 0FFB  
                                        tablat 0FF5                               ?_I2C_SetCallback 0078  
                 I2C_SetAddressNackCallback@cb 007D                                          plusw0 0FEB  
                                        plusw2 0FDB                                          ttemp5 004D  
                                        ttemp6 0050                                          ttemp7 0054  
                                        status 0FD8                                          wtemp8 004D  
                            ?_I2C_DO_SEND_STOP 0031                             ??_I2C_DO_SEND_STOP 0031  
                     fp__rd1RegCompleteHandler 0000                                __initialization 1984  
                        i2I2C_SetBuffer@buffer 0031                                   __end_of_main 14D2  
                     fp__wr1RegCompleteHandler 0000                      ?_I2C_DO_SEND_RESTART_READ 0031  
                               ??_EUSART_Write 0078                                 ?_I2C_DO_RX_ACK 0031  
        EEPROM_240C02C_Write_Byte@Byte_Address 0084                     ??_EEPROM_240C02C_Read_Byte 0085  
                                       ??_main 008B                              ?_I2C_MasterIsNack 0031  
                                __activetblptr 0003                          _I2C_Read2ByteRegister 12D4  
                            ?_I2C_MasterSetIrq 0031  _RealTimeClockDS1307@RealTimeClockDS1307$F1698 0025  
               ??_UART_LOGGINGDATA_send_string 007C               I2C_Read2ByteRegister@returnValue 0087  
                           ??_I2C_MasterIsNack 0031                             ??_I2C_MasterSetIrq 0031  
                   ?_EEPROM_240C02C_Write_Byte 0084              _EUSART_DefaultFramingErrorHandler 0000  
                   _EUSART_OverrunErrorHandler 008D                __end_of_I2C_CallbackReturnReset 1BE6  
                                       _EEADRH 0FAA                                         _EEDATA 0FA8  
                                       _EECON2 0FA7                i2I2C_SetDataCompleteCallback@cb 0036  
                I2C_SetDataCompleteCallback@cb 007D                                         _ANSELH 0F7F  
                                       i2l3031 1692                                         i2l3033 16BE  
                                       i2l3041 1BB8                                         i2l3043 19EA  
                                       i2l3051 1A86                                         i2l3037 1BEE  
                                       i2l3045 19F8                                         i2l3029 1680  
                                       i2l3053 192C                                         i2l3061 1900  
                                       i2l3141 1BA6                                         i2l3039 1BEA  
                                       i2l3047 1A00                                         i2l3055 1940  
                                       i2l3063 1914                                         i2l3071 18E8  
                                       i2l3311 10BA                                         i2l3303 1058  
                                       i2l3143 1B9C                                         i2l3151 1B98  
                                       i2l3049 1A08                                         i2l3081 1980  
                                       i2l3057 1954                                         i2l3065 1928  
                                       i2l3073 18FC                                         i2l3161 1BDA  
                                       i2l3137 1ADE                                         i2l3313 10CC  
                                       i2l3145 1BA0                                         i2l3315 10E4  
                                       i2l3331 1118                                         i2l3155 1B84  
                                       i2l3077 1958                                         i2l3069 18D4  
                                       i2l3085 1834                                         i2l3165 1BB2  
                                       i2l3317 10EA                                         i2l3309 1060  
                                       i2l3333 111C                                         i2l3325 10EE  
                                       i2l3149 1B94                                         i2l3181 1B90  
                                       i2l3157 1B88                                         i2l3173 1B74  
                                       i2l1813 1B3E                                         i2l3501 163E  
                                       i2l3079 196C                                         i2l3087 185E  
                                       i2l3343 1130                                         i2l3327 10FC  
                                       i2l3175 1B78                                         i2l3167 1B6C  
                                       i2l1815 1B40                                         i2l3503 1642  
                                       i2l3089 1872                                         i2l3185 1BE6  
                                       i2l3361 13F0                                         i2l3329 1100  
                                       i2l3169 1B70                                         i2l1817 1B44  
                                       i2l1587 1BDE                                         i2l1595 1BD6  
                                       i2l3363 13F4                                         i2l3355 13E2  
                                       i2l1691 1B58                                         i2l3275 1AF2  
                                       i2l3283 1B00                                         i2l3291 1030  
                                       i2l3339 1128                                         i2l3179 1B8C  
                                       i2l1851 1BD2                                         i2l3189 1BE2  
                                       i2l3357 13E8                                         i2l3373 1402  
                                       i2l3277 1AF4                                         i2l3285 1B02  
                                       i2l3349 1138                                         i2l3381 1B80  
                                       i2l3525 1BAC                                         i2l3367 13FA  
                                       i2l1687 1B52                                         i2l3279 1AFC  
                                       i2l3287 1B08                                         i2l3295 1048  
                                       i2l1775 1B48                                         i2l1689 1B54  
                                       i2l1777 1B4A                                         i2l3393 175A  
                                       i2l3385 1748                                         i2l3299 1050  
                                       i2l1779 1B4E                                         i2l3379 1B7C  
                                       i2l3387 174A                                         i2l3389 1752  
                                       i2l3399 1762                                         i2l3495 1618  
                                       i2l3671 0032                                         i2l3497 161C  
                                       i2l3673 0040                                         i2l3499 162A  
                                       i2l3675 004E                                         i2l3677 0078  
                                       i2l3791 1434                                         i2l3785 1794  
                                       i2l3787 116A                                         i2l3789 1092  
                                       _TABLAT 0FF5                                         _OSCCON 0FD3  
                       ??i2_I2C_MasterClearIrq 0031                      ??_I2C_SetInterruptHandler 007A  
                                       _SPBRGH 0FB0                                         _SSPADD 0FC8  
                                       _SSPBUF 0FC9      __end_of_RealTimeClockDS1307_Get_Date_Time 1618  
          ??_RealTimeClockDS1307_Get_Date_Time 008A             ?_RealTimeClockDS1307_Get_Date_Time 0084  
            _RealTimeClockDS1307_Get_Date_Time 15B0                            _I2C_MasterEnableIrq 1BBE  
                          _I2C_MasterGetRxData 1BDA                                  _I2C_MasterFsm 1618  
                                _I2C_MasterIsr 1BAC                                     _Print_DATE 1234  
                                       clear_0 198A                                         clear_1 1996  
                            I2C_SetCallback@cb 0078                        fp__I2C_DO_SEND_ADR_READ 0000  
                       ?_I2C_Read1ByteRegister 0081                                         isa$std 0001  
                                _I2C_SetBuffer 19A6                   __end_of_I2C_MasterDisableIrq 1BCA  
                         ?_I2C_MasterEnableIrq 0031                            _I2C_DO_ADDRESS_NACK 1748  
                         ?_I2C_MasterGetRxData 0031                                      ?_I2C_Open 0031  
           __end_of_I2C_SetAddressNackCallback 1A86                     _I2C_SetAddressNackCallback 1A6E  
                                 __mediumconst 0000                                         tblptrh 0FF7  
                                       tblptrl 0FF6                                         tblptru 0FF8  
                    ??_I2C_MasterEnableRestart 0031        I2C_SetInterruptHandler@InterruptHandler 0078  
            __end_of_EEPROM_240C02C_Write_Byte 1ACA               ??_INTERRUPT_InterruptManagerHigh 0042  
              ?_INTERRUPT_InterruptManagerHigh 0031                              _SYSTEM_Initialize 1A9E  
                                   __accesstop 0060                        __end_of__initialization 199C  
                          _I2C_MasterOperation 17F0                             ?_SYSTEM_Initialize 0031  
                                ___rparam_used 0001                           ?_I2C_DO_ADDRESS_NACK 0031  
                EEPROM_240C02C_Write_Byte@Data 0085                        _rdBlkRegCompleteHandler 1834  
                   fp__rdBlkRegCompleteHandler 0000                                 __pcstackCOMRAM 0031  
                               ?_I2C_MasterFsm 0031                                 ?_I2C_MasterIsr 0031  
                              ??_I2C_DO_RX_ACK 0031                         _I2C_CallbackReturnStop 1BE6  
                          ??_SYSTEM_Initialize 007A                                 ?_I2C_SetBuffer 0078  
                       ?_I2C_Read2ByteRegister 0081                  __end_of_I2C_DO_SEND_ADR_WRITE 1B0C  
                   ?_I2C_DO_SEND_RESTART_WRITE 0031                           ?_I2C_MasterOperation 0031  
                        ??_I2C_MasterEnableIrq 0078                          ??_I2C_MasterGetRxData 0031  
                      ?_I2C_Write1ByteRegister 0081                                     ??_I2C_Open 007A  
                   __end_of_I2C_MasterClearIrq 1BD2                ??_EUSART_SetOverrunErrorHandler 007A  
                    __end_of_SYSTEM_Initialize 1AB4                              _I2C_MasterSendAck 1BB2  
                                   __pbssBANK0 0060                           __end_of_EUSART_Write 1A3E  
                                ??_I2C_DO_IDLE 0031                                  ??_I2C_DO_RCEN 0031  
                __end_of_rd2RegCompleteHandler 192C                   __end_of_I2C_MasterSendTxData 1BAC  
                           ?_I2C_MasterSendAck 0031                              _I2C_MasterStartRx 1BDE  
                        ??_I2C_DO_ADDRESS_NACK 003D                  __end_of_wr2RegCompleteHandler 1984  
                          _I2C_DO_RX_NACK_STOP 1B74                          _rd1RegCompleteHandler 192C  
                           ?_I2C_MasterStartRx 0031                     __end_of_I2C_MasterSendNack 1BBE  
                        _wr1RegCompleteHandler 18D4                            ??_I2C_MasterSendAck 0031  
                     rd1RegCompleteHandler@ptr 003A                    __end_of_I2C_DO_SEND_RESTART 1B94  
                              _I2C_DO_TX_EMPTY 13E2                            I2C_SetBuffer@buffer 0078  
                          ??_I2C_MasterStartRx 0031                                    ?_Print_DATE 0031  
                                      _BAUDCON 0FB8                          ??_I2C_MasterOperation 0078  
             i2I2C_SetDataCompleteCallback@ptr 0038                 I2C_SetDataCompleteCallback@ptr 007F  
               __end_of_I2C_Write1ByteRegister 1546                       ??_I2C_DO_RX_NACK_RESTART 0031  
            __end_of_I2C_DO_SEND_RESTART_WRITE 1B9C                           ?_I2C_DO_RX_NACK_STOP 0031  
                                      _TBLPTRH 0FF7                                        _TBLPTRL 0FF6  
                                      _TBLPTRU 0FF8                      __end_of_I2C_MasterSendAck 1BB8  
                                      _OSCTUNE 0F9B                       ??_EUSART_SetErrorHandler 007A  
                                      _SSPCON1 0FC6                                        _SSPCON2 0FC5  
                                      _SSPSTAT 0FC7                      __end_of_I2C_MasterStartRx 1BE2  
                         I2C_Close@returnValue 0078                   ?_I2C_SetDataCompleteCallback 007D  
                                    _I2C_DO_RX 10EE                                      _I2C_DO_TX 1030  
             __end_of_I2C_DO_SEND_RESTART_READ 1BA4                   I2C_Read1ByteRegister@address 0082  
                                    _I2C_Close 18A6        EEPROM_240C02C_Write_Byte@EEPROM_Address 0086  
                    ??_rdBlkRegCompleteHandler 003C                           _I2C_MasterDisableIrq 1BC6  
                            ??i2_I2C_SetBuffer 0035                                ??_I2C_MasterFsm 003F  
                              ??_I2C_MasterIsr 0042                                        __Hparam 0000  
                                      __Lparam 0000                                      _DATE_PACK 0066  
                          __end_of_I2C_DO_IDLE 1B5C                            __end_of_I2C_DO_RCEN 1B52  
                              ??_I2C_SetBuffer 007C                        I2C_SetBuffer@bufferSize 007A  
                                 __psmallconst 1000                                 _I2C_MasterOpen 19C8  
                                      __pcinit 1984                                 _I2C_MasterStop 1BEA  
                               _I2C_Initialize 1ACA                                        __ramtop 1000  
                                      __ptext0 145C                                        __ptext1 1A0C  
                                      __ptext2 12D4                                        __ptext3 1A9E  
                                      __ptext4 1876                                        __ptext5 1B0C  
                                      __ptext6 1B5C                                        __ptext7 1ACA  
                                      __ptext8 17AC                                        __ptext9 1B16  
                        ??_I2C_DO_RX_NACK_STOP 0031                          _OSCILLATOR_Initialize 1B0C  
                           I2C_SetCallback@idx 007C                       ??_PIN_MANAGER_Initialize 0078  
                I2C_CallbackReturnReset@funPtr 003A                             I2C_SetCallback@ptr 007A  
                     wr1RegCompleteHandler@ptr 003A                                        _valueu3 002F  
                    I2C_Write1ByteRegister@reg 0081                                        _valueu5 002E  
                     fp__I2C_DO_SEND_ADR_WRITE 0000                    ??_EEPROM_240C02C_Write_Byte 0086  
                         end_of_initialization 199C                                     ?_I2C_DO_RX 0031  
                                   ?_I2C_DO_TX 0031          __end_of_EUSART_SetOverrunErrorHandler 1B20  
                _EUSART_SetOverrunErrorHandler 1B16                                     ?_I2C_Close 0031  
                       ?_rd1RegCompleteHandler 003A                        __end_of_I2C_DO_TX_EMPTY 145C  
                        ?_I2C_MasterDisableIrq 0031                              _EUSART_Initialize 17AC  
                       ?_wr1RegCompleteHandler 003A                                  _Temp_A7_Value 002D  
    UART_LOGGINGDATA_send_string@string_length 007B                       fp__rd2RegCompleteHandler 0000  
                           ?_EUSART_Initialize 0031                                      _RCSTAbits 0FAB  
                                      postdec2 0FDD                        ??_I2C_Read1ByteRegister 0082  
                       __end_of_I2C_MasterOpen 19EA                       fp__wr2RegCompleteHandler 0000  
                                      postinc0 0FEE                                        postinc2 0FDE  
                       __end_of_I2C_MasterStop 1BEE                         __end_of_I2C_Initialize 1ADE  
                    ?_TEMSENSOR_TC74_Read_Temp 0031                      fp__I2C_CallbackReturnStop 0000  
                          ??_EUSART_Initialize 007A                __end_of_rdBlkRegCompleteHandler 1876  
                         _I2C_MasterSendTxData 1BA4                                fp__I2C_DO_RESET 0000  
           TEMSENSOR_TC74_Read_Temp@TC74_Value 008A                    ?_I2C_SetAddressNackCallback 007D  
       EEPROM_240C02C_Read_Byte@EEPROM_Address 0085                      ?_EEPROM_240C02C_Read_Byte 0084  
                    __end_of_EUSART_Initialize 17F0                                    _I2C_DO_IDLE 1B52  
                                  _I2C_DO_RCEN 1B48                     rdBlkRegCompleteHandler@ptr 003A  
                I2C_Write1ByteRegister@address 0083                                      _TXSTAbits 0FAC  
                      ?_I2C_CallbackReturnStop 003A                       _I2C_DO_SEND_RESTART_READ 1B9C  
                  fp__I2C_DO_SEND_RESTART_READ 0000                      _EEPROM_240C02C_Write_Byte 1AB4  
                            i2_I2C_SetCallback 167E                   I2C_CallbackReturnStop@funPtr 003A  
                      ??_I2C_Read2ByteRegister 0083                                ?_I2C_MasterOpen 0031  
                 __end_of_INTERRUPT_Initialize 1B64                                ?_I2C_MasterStop 0031  
                              ?_I2C_Initialize 0031                        _I2C_CallbackReturnReset 1BE2  
                     I2C_Read1ByteRegister@reg 0081                     fp__I2C_CallbackReturnReset 0000  
                   _EUSART_DefaultErrorHandler 0000                             ?i2_I2C_SetCallback 0031  
              ??i2_I2C_SetDataCompleteCallback 003A                                   _EUSART_Write 1A26  
                        ?_I2C_MasterSendTxData 0031                         ?_OSCILLATOR_Initialize 0031  
                  ??_I2C_DO_SEND_RESTART_WRITE 0031                            ??i2_I2C_SetCallback 0035  
                          start_initialization 1984                                  ?_I2C_DO_RESET 0031  
           UART_LOGGINGDATA_send_string@string 0079                       ?_I2C_SetInterruptHandler 0078  
                                  ??_I2C_DO_RX 003D                                    ??_I2C_DO_TX 003D  
                            ??_I2C_MasterClose 0078                         ??_I2C_MasterDisableIrq 0078  
                                  ??_I2C_Close 0078                              ??_I2C_MasterStart 0078  
                            ??_I2C_MasterWrite 007A                 __end_of_I2C_CallbackReturnStop 1BEA  
                       _I2C_DO_RX_NACK_RESTART 1B6C                               ?_I2C_DO_TX_EMPTY 0031  
                           _I2C_MasterClearIrq 1BCE                      __end_ofi2_I2C_SetCallback 16E4  
               ?_EUSART_SetOverrunErrorHandler 0078                     _EUSART_FramingErrorHandler 008F  
                       _EUSART_SetErrorHandler 1B2A                    __end_of_I2C_MasterEnableIrq 1BC2  
                          ?_I2C_MasterClearIrq 0031                    __end_of_I2C_MasterGetRxData 1BDE  
                                 ??_Print_DATE 0080                          __end_of_I2C_DO_RX_ACK 1B84  
                             _I2C_DO_SEND_STOP 1B84                              ??_I2C_SetCallback 007C  
                          I2C_Open@returnValue 007B                             _I2C_MasterSendNack 1BB8  
                     ?_I2C_MasterEnableRestart 0031                              _i2c_fsmStateTable 1001  
                       fp__I2C_DO_SEND_RESTART 0000                       I2C_Read2ByteRegister@reg 0081  
                        _I2C_DO_SEND_ADR_WRITE 1B00                                    __pbssCOMRAM 0001  
                                __pcstackBANK0 0078                                 ??_I2C_DO_RESET 0031  
                          ?_I2C_MasterSendNack 0031                                i2_I2C_SetBuffer 19EA  
                 __end_of_I2C_DO_SEND_ADR_READ 1B00                           ??_I2C_MasterClearIrq 0078  
                  __end_of_I2C_DO_ADDRESS_NACK 17AC                               _I2C_MasterIsNack 1ADE  
                    _I2C_DO_SEND_RESTART_WRITE 1B94                             __end_of_Print_DATE 12D4  
                             _I2C_MasterSetIrq 1BD6                                      __pnvBANK0 008B  
                        _rd2RegCompleteHandler 1900                         _PIN_MANAGER_Initialize 1876  
                        _wr2RegCompleteHandler 1958                      ??_I2C_CallbackReturnReset 003C  
                  __end_of_I2C_MasterOperation 1834                           ??_I2C_MasterSendNack 0031  
                     rd2RegCompleteHandler@ptr 003A                                      __pintcode 0008  
                       ??_I2C_MasterSendTxData 0031                      __end_of_i2c_fsmStateTable 1021  
                                 fp__I2C_DO_RX 0000                                   fp__I2C_DO_TX 0000  
                                  __smallconst 1000                __end_of_I2C_SetInterruptHandler 1B3E  
        __end_ofi2_I2C_SetDataCompleteCallback 1A9E                  i2_I2C_SetDataCompleteCallback 1A86  
                      I2C_MasterOperation@read 0078                                       _I2C_Open 1192  
                      ??_rd1RegCompleteHandler 003C                           _INTERRUPT_Initialize 1B5C  
         TEMSENSOR_TC74_Read_Temp@TC74_Address 0089               __end_of_TEMSENSOR_TC74_Read_Temp 1A26  
                      ??_wr1RegCompleteHandler 003C                   I2C_Read2ByteRegister@address 0086  
       EUSART_SetErrorHandler@interruptHandler 0078                                       _IPR1bits 0F9F  
                                     _IPR2bits 0FA2                                       _PIE1bits 0F9D  
                                     _PIE2bits 0FA0                              _eusartRxLastError 0030  
                                     i2u120_40 10E4                                       i2u120_41 10E0  
                                     i2u121_40 1118                                       i2u121_41 1114  
                                     i2u114_40 1AEE                                       i2u114_41 1AE8  
                                     i2u114_46 1AF0                                       i2u122_48 1146  
                                     i2u122_49 1158                                       i2u108_40 1692  
                                     i2u123_48 1410                                       i2u132_40 162A  
                                     i2u108_41 168E                                       i2u123_49 1422  
                                     i2u132_41 1626                                       i2u109_40 19F8  
                                     i2u124_48 1770                                       i2u133_40 163E  
                                     i2u109_41 19F4                                       i2u124_49 1782  
                                     i2u133_41 163A                                       i2u118_40 1044  
                                     i2u118_41 1040                                       i2u134_48 1668  
                                     i2u151_40 0078                                       i2u150_48 0054  
                                     i2u134_49 167A                                       i2u151_41 0074  
                                     i2u150_49 0066                                       i2u119_48 106E  
                                     i2u152_40 0086                                       i2u119_49 1080  
                                     i2u152_41 0082                                       i2u148_40 0040  
                                     i2u148_41 003C                                       i2u149_40 004E  
                                     i2u149_41 004A                                       _PIR1bits 0F9E  
              ??_EUSART_SetFramingErrorHandler 007A                                       _PIR2bits 0FA1  
                        __end_of_I2C_MasterFsm 167E                          __end_of_I2C_MasterIsr 1BB2  
                                     _RCONbits 0FD0                    __end_of_I2C_DO_RX_NACK_STOP 1B7C  
            _EUSART_DefaultOverrunErrorHandler 0000                __end_of_I2C_MasterEnableRestart 1BF2  
                               fp__I2C_DO_IDLE 0000                                 fp__I2C_DO_RCEN 0000  
                __end_of_I2C_Read1ByteRegister 13E2                          __end_of_I2C_SetBuffer 19C8  
                       ?_I2C_DO_SEND_ADR_WRITE 0031                        __end_ofi2_I2C_SetBuffer 1A0C  
             __end_of_EEPROM_240C02C_Read_Byte 1A56                       I2C_MasterSendTxData@data 0031  
                     wr2RegCompleteHandler@ptr 003A                                    _INTCON2bits 0FF1  
                   ??_I2C_DO_SEND_RESTART_READ 0031                          ?_INTERRUPT_Initialize 0031  
                     ?_rdBlkRegCompleteHandler 003A                      i2I2C_SetBuffer@bufferSize 0033  
                                   _I2C_Status 0001                                   ?_I2C_DO_IDLE 0031  
                                 ?_I2C_DO_RCEN 0031                         ?_rd2RegCompleteHandler 003A  
                                   _EECON1bits 0FA6                               ??_I2C_MasterOpen 0078  
                       ?_wr2RegCompleteHandler 003A                               ??_I2C_MasterStop 0031  
                             ??_I2C_Initialize 0078                      fp__I2C_DO_RX_NACK_RESTART 0000  
                                     __Hrparam 0000                                       __Lrparam 0000  
                         __end_of_I2C_DO_RESET 1B48                       ??_I2C_Write1ByteRegister 0083  
                      ??_OSCILLATOR_Initialize 0078                            _EUSART_ErrorHandler 008B  
                          _RealTimeClockDS1307 0060                           _I2C_DO_SEND_ADR_READ 1AF2  
                __end_of_I2C_Read2ByteRegister 1364               I2C_Read1ByteRegister@returnValue 0083  
                 __end_ofi2_I2C_MasterClearIrq 1BD6              EEPROM_240C02C_Read_Byte@Rec_Value 0086  
                              _I2C_MasterClose 1BCA                  I2C_SetAddressNackCallback@ptr 007F  
                              I2C_Open@address 007A                            fp__I2C_DO_SEND_STOP 0000  
                         i2I2C_SetCallback@idx 0035                                _I2C_MasterStart 1BC2  
                         i2I2C_SetCallback@ptr 0033                                _I2C_MasterWrite 1B64  
                                     __ptext10 1B20                                       __ptext11 1B2A  
                                     __ptext20 1A56                                       __ptext12 15B0  
                                     __ptext21 19A6                                       __ptext13 1234  
                                     __ptext30 1BC2                                       __ptext22 1A6E  
                                     __ptext14 16E4                                       __ptext31 18A6  
                                     __ptext23 1546                                       __ptext15 1A26  
                                     __ptext40 1B3E                                       __ptext32 1BC6  
                                     __ptext24 1192                                       __ptext16 1AB4  
                                     __ptext41 1B6C                                       __ptext33 1BCA  
                                     __ptext25 1B34                                       __ptext17 14D2  
                                     __ptext50 1030                                       __ptext42 1B74  
                                     __ptext34 1BCE                                       __ptext26 19C8  
                                     __ptext18 1A3E                                       __ptext51 1B00  
                                     __ptext43 1B7C                                       __ptext27 1BBE  
                                     __ptext19 1364                                       __ptext60 1BB8  
                                     __ptext52 1AF2                                       __ptext44 1B84  
                                     __ptext36 1BAC                                       __ptext28 1B64  
                                     __ptext61 1BDE                                       __ptext53 1B52  
                                     __ptext45 1B8C                                       __ptext37 1618  
                                     __ptext29 17F0                                       __ptext70 167E  
                                     __ptext62 1BE2                                       __ptext54 13E2  
                                     __ptext46 1B94                                       __ptext38 1BD2  
                                     __ptext71 19EA                                       __ptext63 1BE6  
                                     __ptext55 1BD6                                       __ptext47 1B9C  
                                     __ptext39 1748                                       __ptext72 1BEA  
                                     __ptext64 1834                                       __ptext56 1ADE  
                                     __ptext48 1B48                                       __ptext73 1BEE  
                                     __ptext65 18D4                                       __ptext57 1BA4  
                                     __ptext49 10EE                                       __ptext74 0000  
                                     __ptext66 1900                                       __ptext58 1BB2  
                                     __ptext67 192C                                       __ptext59 1BDA  
                                     __ptext68 1958                                       __ptext69 1A86  
          __end_of_I2C_SetDataCompleteCallback 1A6E                 ?i2_I2C_SetDataCompleteCallback 0036  
                  _I2C_SetDataCompleteCallback 1A56                        ?_I2C_DO_RX_NACK_RESTART 0031  
                     __end_of_I2C_DO_SEND_STOP 1B8C                        ?_EUSART_SetErrorHandler 0078  
                              _I2C_SetCallback 1546                       _TEMSENSOR_TC74_Read_Temp 1A0C  
                ??_I2C_SetDataCompleteCallback 0081    UART_LOGGINGDATA_send_string@l_string_length 007E  
                   I2C_Write1ByteRegister@data 0082  EUSART_SetOverrunErrorHandler@interruptHandler 0078  
                                     isa$xinst 0000                                       int$flags 004C  
                        ?_I2C_DO_SEND_ADR_READ 0031          __end_of_EUSART_SetFramingErrorHandler 1B2A  
                _EUSART_SetFramingErrorHandler 1B20                       __end_of_I2C_MasterIsNack 1AF2  
                     __end_of_I2C_MasterSetIrq 1BDA                               ?i2_I2C_SetBuffer 0031  
                                   _INTCONbits 0FF2                         ??_INTERRUPT_Initialize 0078  
                     _EEPROM_240C02C_Read_Byte 1A3E                 __end_of_I2C_DO_RX_NACK_RESTART 1B74  
                                     intlevel2 0000                            i2I2C_SetCallback@cb 0031  
                      ?_PIN_MANAGER_Initialize 0031                 __end_of_EUSART_SetErrorHandler 1B34  
                          _I2C_DO_SEND_RESTART 1B8C                         fp__I2C_DO_ADDRESS_NACK 0000  
         __end_of_UART_LOGGINGDATA_send_string 1748                   _UART_LOGGINGDATA_send_string 16E4  
EUSART_SetFramingErrorHandler@interruptHandler 0078                        __end_of_I2C_MasterClose 1BCE  
                           fp__I2C_DO_TX_EMPTY 0000                        __end_of_I2C_MasterStart 1BC6  
                      __end_of_I2C_MasterWrite 1B6C         __end_of_INTERRUPT_InterruptManagerHigh 00B6  
               _INTERRUPT_InterruptManagerHigh 0008                           ?_I2C_DO_SEND_RESTART 0031  
                                  _SSPCON1bits 0FC6                                    _SSPCON2bits 0FC5  
                           EUSART_Write@txData 0078                        __end_of_I2C_SetCallback 15B0  
               __end_of_PIN_MANAGER_Initialize 18A6                  __end_of_rd1RegCompleteHandler 1958  
                             fp__I2C_DO_RX_ACK 0000                  __end_of_wr1RegCompleteHandler 1900  
                        _MSSP_InterruptHandler 002B                           i2_I2C_MasterClearIrq 1BD2  
